
WSS.elf:     file format elf32-littlearm

Sections:
Idx Name          Size      VMA       LMA       File off  Algn
  0 .isr_vector   000001d0  08000000  08000000  00010000  2**0
                  CONTENTS, ALLOC, LOAD, READONLY, DATA
  1 .text         00003554  080001d0  080001d0  000101d0  2**4
                  CONTENTS, ALLOC, LOAD, READONLY, CODE
  2 .rodata       000000b4  08003724  08003724  00013724  2**2
                  CONTENTS, ALLOC, LOAD, READONLY, DATA
  3 .ARM.extab    00000000  080037d8  080037d8  00020010  2**0
                  CONTENTS
  4 .ARM          00000000  080037d8  080037d8  00020010  2**0
                  CONTENTS
  5 .preinit_array 00000000  080037d8  080037d8  00020010  2**0
                  CONTENTS, ALLOC, LOAD, DATA
  6 .init_array   00000004  080037d8  080037d8  000137d8  2**2
                  CONTENTS, ALLOC, LOAD, DATA
  7 .fini_array   00000004  080037dc  080037dc  000137dc  2**2
                  CONTENTS, ALLOC, LOAD, DATA
  8 .data         00000010  20000000  080037e0  00020000  2**2
                  CONTENTS, ALLOC, LOAD, DATA
  9 .bss          000016e8  20000010  080037f0  00020010  2**2
                  ALLOC
 10 ._user_heap_stack 00000600  200016f8  080037f0  000216f8  2**0
                  ALLOC
 11 .ARM.attributes 00000029  00000000  00000000  00020010  2**0
                  CONTENTS, READONLY
 12 .comment      00000050  00000000  00000000  00020039  2**0
                  CONTENTS, READONLY
 13 .debug_frame  00000074  00000000  00000000  0002008c  2**2
                  CONTENTS, READONLY, DEBUGGING, OCTETS

Disassembly of section .text:

080001d0 <__do_global_dtors_aux>:
 80001d0:	b510      	push	{r4, lr}
 80001d2:	4c05      	ldr	r4, [pc, #20]	; (80001e8 <__do_global_dtors_aux+0x18>)
 80001d4:	7823      	ldrb	r3, [r4, #0]
 80001d6:	b933      	cbnz	r3, 80001e6 <__do_global_dtors_aux+0x16>
 80001d8:	4b04      	ldr	r3, [pc, #16]	; (80001ec <__do_global_dtors_aux+0x1c>)
 80001da:	b113      	cbz	r3, 80001e2 <__do_global_dtors_aux+0x12>
 80001dc:	4804      	ldr	r0, [pc, #16]	; (80001f0 <__do_global_dtors_aux+0x20>)
 80001de:	f3af 8000 	nop.w
 80001e2:	2301      	movs	r3, #1
 80001e4:	7023      	strb	r3, [r4, #0]
 80001e6:	bd10      	pop	{r4, pc}
 80001e8:	20000010 	.word	0x20000010
 80001ec:	00000000 	.word	0x00000000
 80001f0:	0800370c 	.word	0x0800370c

080001f4 <frame_dummy>:
 80001f4:	b508      	push	{r3, lr}
 80001f6:	4b03      	ldr	r3, [pc, #12]	; (8000204 <frame_dummy+0x10>)
 80001f8:	b11b      	cbz	r3, 8000202 <frame_dummy+0xe>
 80001fa:	4903      	ldr	r1, [pc, #12]	; (8000208 <frame_dummy+0x14>)
 80001fc:	4803      	ldr	r0, [pc, #12]	; (800020c <frame_dummy+0x18>)
 80001fe:	f3af 8000 	nop.w
 8000202:	bd08      	pop	{r3, pc}
 8000204:	00000000 	.word	0x00000000
 8000208:	20000014 	.word	0x20000014
 800020c:	0800370c 	.word	0x0800370c

08000210 <MX_ADC1_Init>:
 8000210:	b51f      	push	{r0, r1, r2, r3, r4, lr}
 8000212:	4850      	ldr	r0, [pc, #320]	; (8000354 <MX_ADC1_Init+0x144>)
 8000214:	4a50      	ldr	r2, [pc, #320]	; (8000358 <MX_ADC1_Init+0x148>)
 8000216:	2300      	movs	r3, #0
 8000218:	6002      	str	r2, [r0, #0]
 800021a:	f44f 7280 	mov.w	r2, #256	; 0x100
 800021e:	2401      	movs	r4, #1
 8000220:	e9cd 3301 	strd	r3, r3, [sp, #4]
 8000224:	9303      	str	r3, [sp, #12]
 8000226:	6082      	str	r2, [r0, #8]
 8000228:	7503      	strb	r3, [r0, #20]
 800022a:	f44f 2260 	mov.w	r2, #917504	; 0xe0000
 800022e:	6043      	str	r3, [r0, #4]
 8000230:	230c      	movs	r3, #12
 8000232:	7304      	strb	r4, [r0, #12]
 8000234:	61c2      	str	r2, [r0, #28]
 8000236:	6103      	str	r3, [r0, #16]
 8000238:	f000 fd0a 	bl	8000c50 <HAL_ADC_Init>
 800023c:	b108      	cbz	r0, 8000242 <MX_ADC1_Init+0x32>
 800023e:	f000 fa51 	bl	80006e4 <Error_Handler>
 8000242:	2307      	movs	r3, #7
 8000244:	e9cd 3401 	strd	r3, r4, [sp, #4]
 8000248:	2406      	movs	r4, #6
 800024a:	4842      	ldr	r0, [pc, #264]	; (8000354 <MX_ADC1_Init+0x144>)
 800024c:	a901      	add	r1, sp, #4
 800024e:	9403      	str	r4, [sp, #12]
 8000250:	f000 fc5a 	bl	8000b08 <HAL_ADC_ConfigChannel>
 8000254:	b108      	cbz	r0, 800025a <MX_ADC1_Init+0x4a>
 8000256:	f000 fa45 	bl	80006e4 <Error_Handler>
 800025a:	2302      	movs	r3, #2
 800025c:	483d      	ldr	r0, [pc, #244]	; (8000354 <MX_ADC1_Init+0x144>)
 800025e:	a901      	add	r1, sp, #4
 8000260:	9401      	str	r4, [sp, #4]
 8000262:	9302      	str	r3, [sp, #8]
 8000264:	f000 fc50 	bl	8000b08 <HAL_ADC_ConfigChannel>
 8000268:	b108      	cbz	r0, 800026e <MX_ADC1_Init+0x5e>
 800026a:	f000 fa3b 	bl	80006e4 <Error_Handler>
 800026e:	2005      	movs	r0, #5
 8000270:	2303      	movs	r3, #3
 8000272:	a901      	add	r1, sp, #4
 8000274:	e9cd 0301 	strd	r0, r3, [sp, #4]
 8000278:	4836      	ldr	r0, [pc, #216]	; (8000354 <MX_ADC1_Init+0x144>)
 800027a:	f000 fc45 	bl	8000b08 <HAL_ADC_ConfigChannel>
 800027e:	b108      	cbz	r0, 8000284 <MX_ADC1_Init+0x74>
 8000280:	f000 fa30 	bl	80006e4 <Error_Handler>
 8000284:	2304      	movs	r3, #4
 8000286:	4833      	ldr	r0, [pc, #204]	; (8000354 <MX_ADC1_Init+0x144>)
 8000288:	eb0d 0103 	add.w	r1, sp, r3
 800028c:	e9cd 3301 	strd	r3, r3, [sp, #4]
 8000290:	f000 fc3a 	bl	8000b08 <HAL_ADC_ConfigChannel>
 8000294:	b108      	cbz	r0, 800029a <MX_ADC1_Init+0x8a>
 8000296:	f000 fa25 	bl	80006e4 <Error_Handler>
 800029a:	2103      	movs	r1, #3
 800029c:	2305      	movs	r3, #5
 800029e:	482d      	ldr	r0, [pc, #180]	; (8000354 <MX_ADC1_Init+0x144>)
 80002a0:	e9cd 1301 	strd	r1, r3, [sp, #4]
 80002a4:	a901      	add	r1, sp, #4
 80002a6:	f000 fc2f 	bl	8000b08 <HAL_ADC_ConfigChannel>
 80002aa:	b108      	cbz	r0, 80002b0 <MX_ADC1_Init+0xa0>
 80002ac:	f000 fa1a 	bl	80006e4 <Error_Handler>
 80002b0:	2202      	movs	r2, #2
 80002b2:	2306      	movs	r3, #6
 80002b4:	4827      	ldr	r0, [pc, #156]	; (8000354 <MX_ADC1_Init+0x144>)
 80002b6:	a901      	add	r1, sp, #4
 80002b8:	e9cd 2301 	strd	r2, r3, [sp, #4]
 80002bc:	f000 fc24 	bl	8000b08 <HAL_ADC_ConfigChannel>
 80002c0:	b108      	cbz	r0, 80002c6 <MX_ADC1_Init+0xb6>
 80002c2:	f000 fa0f 	bl	80006e4 <Error_Handler>
 80002c6:	f04f 0e01 	mov.w	lr, #1
 80002ca:	2307      	movs	r3, #7
 80002cc:	4821      	ldr	r0, [pc, #132]	; (8000354 <MX_ADC1_Init+0x144>)
 80002ce:	a901      	add	r1, sp, #4
 80002d0:	e9cd e301 	strd	lr, r3, [sp, #4]
 80002d4:	f000 fc18 	bl	8000b08 <HAL_ADC_ConfigChannel>
 80002d8:	b108      	cbz	r0, 80002de <MX_ADC1_Init+0xce>
 80002da:	f000 fa03 	bl	80006e4 <Error_Handler>
 80002de:	f04f 0c00 	mov.w	ip, #0
 80002e2:	2308      	movs	r3, #8
 80002e4:	481b      	ldr	r0, [pc, #108]	; (8000354 <MX_ADC1_Init+0x144>)
 80002e6:	a901      	add	r1, sp, #4
 80002e8:	e9cd c301 	strd	ip, r3, [sp, #4]
 80002ec:	f000 fc0c 	bl	8000b08 <HAL_ADC_ConfigChannel>
 80002f0:	b108      	cbz	r0, 80002f6 <MX_ADC1_Init+0xe6>
 80002f2:	f000 f9f7 	bl	80006e4 <Error_Handler>
 80002f6:	2411      	movs	r4, #17
 80002f8:	2309      	movs	r3, #9
 80002fa:	4816      	ldr	r0, [pc, #88]	; (8000354 <MX_ADC1_Init+0x144>)
 80002fc:	a901      	add	r1, sp, #4
 80002fe:	e9cd 4301 	strd	r4, r3, [sp, #4]
 8000302:	f000 fc01 	bl	8000b08 <HAL_ADC_ConfigChannel>
 8000306:	b108      	cbz	r0, 800030c <MX_ADC1_Init+0xfc>
 8000308:	f000 f9ec 	bl	80006e4 <Error_Handler>
 800030c:	2010      	movs	r0, #16
 800030e:	230a      	movs	r3, #10
 8000310:	a901      	add	r1, sp, #4
 8000312:	e9cd 0301 	strd	r0, r3, [sp, #4]
 8000316:	480f      	ldr	r0, [pc, #60]	; (8000354 <MX_ADC1_Init+0x144>)
 8000318:	f000 fbf6 	bl	8000b08 <HAL_ADC_ConfigChannel>
 800031c:	b108      	cbz	r0, 8000322 <MX_ADC1_Init+0x112>
 800031e:	f000 f9e1 	bl	80006e4 <Error_Handler>
 8000322:	2109      	movs	r1, #9
 8000324:	230b      	movs	r3, #11
 8000326:	480b      	ldr	r0, [pc, #44]	; (8000354 <MX_ADC1_Init+0x144>)
 8000328:	e9cd 1301 	strd	r1, r3, [sp, #4]
 800032c:	a901      	add	r1, sp, #4
 800032e:	f000 fbeb 	bl	8000b08 <HAL_ADC_ConfigChannel>
 8000332:	b108      	cbz	r0, 8000338 <MX_ADC1_Init+0x128>
 8000334:	f000 f9d6 	bl	80006e4 <Error_Handler>
 8000338:	2208      	movs	r2, #8
 800033a:	230c      	movs	r3, #12
 800033c:	4805      	ldr	r0, [pc, #20]	; (8000354 <MX_ADC1_Init+0x144>)
 800033e:	a901      	add	r1, sp, #4
 8000340:	e9cd 2301 	strd	r2, r3, [sp, #4]
 8000344:	f000 fbe0 	bl	8000b08 <HAL_ADC_ConfigChannel>
 8000348:	b108      	cbz	r0, 800034e <MX_ADC1_Init+0x13e>
 800034a:	f000 f9cb 	bl	80006e4 <Error_Handler>
 800034e:	b004      	add	sp, #16
 8000350:	bd10      	pop	{r4, pc}
 8000352:	bf00      	nop
 8000354:	2000002c 	.word	0x2000002c
 8000358:	40012400 	.word	0x40012400

0800035c <HAL_ADC_MspInit>:
 800035c:	2210      	movs	r2, #16
 800035e:	b530      	push	{r4, r5, lr}
 8000360:	4605      	mov	r5, r0
 8000362:	b089      	sub	sp, #36	; 0x24
 8000364:	eb0d 0002 	add.w	r0, sp, r2
 8000368:	2100      	movs	r1, #0
 800036a:	f003 f9c7 	bl	80036fc <memset>
 800036e:	682a      	ldr	r2, [r5, #0]
 8000370:	4b29      	ldr	r3, [pc, #164]	; (8000418 <HAL_ADC_MspInit+0xbc>)
 8000372:	429a      	cmp	r2, r3
 8000374:	d14d      	bne.n	8000412 <HAL_ADC_MspInit+0xb6>
 8000376:	f503 436c 	add.w	r3, r3, #60416	; 0xec00
 800037a:	699a      	ldr	r2, [r3, #24]
 800037c:	2403      	movs	r4, #3
 800037e:	f442 7200 	orr.w	r2, r2, #512	; 0x200
 8000382:	619a      	str	r2, [r3, #24]
 8000384:	699a      	ldr	r2, [r3, #24]
 8000386:	4825      	ldr	r0, [pc, #148]	; (800041c <HAL_ADC_MspInit+0xc0>)
 8000388:	f402 7200 	and.w	r2, r2, #512	; 0x200
 800038c:	9201      	str	r2, [sp, #4]
 800038e:	9a01      	ldr	r2, [sp, #4]
 8000390:	699a      	ldr	r2, [r3, #24]
 8000392:	a904      	add	r1, sp, #16
 8000394:	f042 0204 	orr.w	r2, r2, #4
 8000398:	619a      	str	r2, [r3, #24]
 800039a:	699a      	ldr	r2, [r3, #24]
 800039c:	f002 0204 	and.w	r2, r2, #4
 80003a0:	9202      	str	r2, [sp, #8]
 80003a2:	9a02      	ldr	r2, [sp, #8]
 80003a4:	699a      	ldr	r2, [r3, #24]
 80003a6:	f042 0208 	orr.w	r2, r2, #8
 80003aa:	619a      	str	r2, [r3, #24]
 80003ac:	699b      	ldr	r3, [r3, #24]
 80003ae:	f003 0308 	and.w	r3, r3, #8
 80003b2:	9303      	str	r3, [sp, #12]
 80003b4:	9b03      	ldr	r3, [sp, #12]
 80003b6:	23ff      	movs	r3, #255	; 0xff
 80003b8:	e9cd 3404 	strd	r3, r4, [sp, #16]
 80003bc:	f000 fdea 	bl	8000f94 <HAL_GPIO_Init>
 80003c0:	4817      	ldr	r0, [pc, #92]	; (8000420 <HAL_ADC_MspInit+0xc4>)
 80003c2:	a904      	add	r1, sp, #16
 80003c4:	e9cd 4404 	strd	r4, r4, [sp, #16]
 80003c8:	f000 fde4 	bl	8000f94 <HAL_GPIO_Init>
 80003cc:	2300      	movs	r3, #0
 80003ce:	4c15      	ldr	r4, [pc, #84]	; (8000424 <HAL_ADC_MspInit+0xc8>)
 80003d0:	4a15      	ldr	r2, [pc, #84]	; (8000428 <HAL_ADC_MspInit+0xcc>)
 80003d2:	2180      	movs	r1, #128	; 0x80
 80003d4:	e9c4 2300 	strd	r2, r3, [r4]
 80003d8:	60a3      	str	r3, [r4, #8]
 80003da:	f44f 7380 	mov.w	r3, #256	; 0x100
 80003de:	f44f 6080 	mov.w	r0, #1024	; 0x400
 80003e2:	e9c4 1303 	strd	r1, r3, [r4, #12]
 80003e6:	2320      	movs	r3, #32
 80003e8:	e9c4 0305 	strd	r0, r3, [r4, #20]
 80003ec:	f44f 5300 	mov.w	r3, #8192	; 0x2000
 80003f0:	4620      	mov	r0, r4
 80003f2:	61e3      	str	r3, [r4, #28]
 80003f4:	f000 fd0e 	bl	8000e14 <HAL_DMA_Init>
 80003f8:	b108      	cbz	r0, 80003fe <HAL_ADC_MspInit+0xa2>
 80003fa:	f000 f973 	bl	80006e4 <Error_Handler>
 80003fe:	2012      	movs	r0, #18
 8000400:	622c      	str	r4, [r5, #32]
 8000402:	2200      	movs	r2, #0
 8000404:	2105      	movs	r1, #5
 8000406:	6265      	str	r5, [r4, #36]	; 0x24
 8000408:	f000 fcb4 	bl	8000d74 <HAL_NVIC_SetPriority>
 800040c:	2012      	movs	r0, #18
 800040e:	f000 fce3 	bl	8000dd8 <HAL_NVIC_EnableIRQ>
 8000412:	b009      	add	sp, #36	; 0x24
 8000414:	bd30      	pop	{r4, r5, pc}
 8000416:	bf00      	nop
 8000418:	40012400 	.word	0x40012400
 800041c:	40010800 	.word	0x40010800
 8000420:	40010c00 	.word	0x40010c00
 8000424:	2000005c 	.word	0x2000005c
 8000428:	40020008 	.word	0x40020008

0800042c <MX_CRC_Init>:
 800042c:	b508      	push	{r3, lr}
 800042e:	4805      	ldr	r0, [pc, #20]	; (8000444 <MX_CRC_Init+0x18>)
 8000430:	4b05      	ldr	r3, [pc, #20]	; (8000448 <MX_CRC_Init+0x1c>)
 8000432:	6003      	str	r3, [r0, #0]
 8000434:	f000 fcde 	bl	8000df4 <HAL_CRC_Init>
 8000438:	b118      	cbz	r0, 8000442 <MX_CRC_Init+0x16>
 800043a:	e8bd 4008 	ldmia.w	sp!, {r3, lr}
 800043e:	f000 b951 	b.w	80006e4 <Error_Handler>
 8000442:	bd08      	pop	{r3, pc}
 8000444:	200000a0 	.word	0x200000a0
 8000448:	40023000 	.word	0x40023000

0800044c <HAL_CRC_MspInit>:
 800044c:	6802      	ldr	r2, [r0, #0]
 800044e:	4b08      	ldr	r3, [pc, #32]	; (8000470 <HAL_CRC_MspInit+0x24>)
 8000450:	b082      	sub	sp, #8
 8000452:	429a      	cmp	r2, r3
 8000454:	d10a      	bne.n	800046c <HAL_CRC_MspInit+0x20>
 8000456:	f5a3 5300 	sub.w	r3, r3, #8192	; 0x2000
 800045a:	695a      	ldr	r2, [r3, #20]
 800045c:	f042 0240 	orr.w	r2, r2, #64	; 0x40
 8000460:	615a      	str	r2, [r3, #20]
 8000462:	695b      	ldr	r3, [r3, #20]
 8000464:	f003 0340 	and.w	r3, r3, #64	; 0x40
 8000468:	9301      	str	r3, [sp, #4]
 800046a:	9b01      	ldr	r3, [sp, #4]
 800046c:	b002      	add	sp, #8
 800046e:	4770      	bx	lr
 8000470:	40023000 	.word	0x40023000

08000474 <MX_DMA_Init>:
 8000474:	4b0e      	ldr	r3, [pc, #56]	; (80004b0 <MX_DMA_Init+0x3c>)
 8000476:	b507      	push	{r0, r1, r2, lr}
 8000478:	695a      	ldr	r2, [r3, #20]
 800047a:	2105      	movs	r1, #5
 800047c:	f042 0201 	orr.w	r2, r2, #1
 8000480:	615a      	str	r2, [r3, #20]
 8000482:	695b      	ldr	r3, [r3, #20]
 8000484:	2200      	movs	r2, #0
 8000486:	f003 0301 	and.w	r3, r3, #1
 800048a:	9301      	str	r3, [sp, #4]
 800048c:	200b      	movs	r0, #11
 800048e:	9b01      	ldr	r3, [sp, #4]
 8000490:	f000 fc70 	bl	8000d74 <HAL_NVIC_SetPriority>
 8000494:	200b      	movs	r0, #11
 8000496:	f000 fc9f 	bl	8000dd8 <HAL_NVIC_EnableIRQ>
 800049a:	2200      	movs	r2, #0
 800049c:	2105      	movs	r1, #5
 800049e:	200f      	movs	r0, #15
 80004a0:	f000 fc68 	bl	8000d74 <HAL_NVIC_SetPriority>
 80004a4:	200f      	movs	r0, #15
 80004a6:	b003      	add	sp, #12
 80004a8:	f85d eb04 	ldr.w	lr, [sp], #4
 80004ac:	f000 bc94 	b.w	8000dd8 <HAL_NVIC_EnableIRQ>
 80004b0:	40021000 	.word	0x40021000

080004b4 <DefaultTimerCallback>:
 80004b4:	4770      	bx	lr

080004b6 <StartDefaultTask>:
 80004b6:	b508      	push	{r3, lr}
 80004b8:	2001      	movs	r0, #1
 80004ba:	f001 fbc7 	bl	8001c4c <osDelay>
 80004be:	e7fb      	b.n	80004b8 <StartDefaultTask+0x2>

080004c0 <MX_FREERTOS_Init>:
 80004c0:	b508      	push	{r3, lr}
 80004c2:	480a      	ldr	r0, [pc, #40]	; (80004ec <MX_FREERTOS_Init+0x2c>)
 80004c4:	f001 fc1e 	bl	8001d04 <osMutexNew>
 80004c8:	4b09      	ldr	r3, [pc, #36]	; (80004f0 <MX_FREERTOS_Init+0x30>)
 80004ca:	2200      	movs	r2, #0
 80004cc:	6018      	str	r0, [r3, #0]
 80004ce:	2101      	movs	r1, #1
 80004d0:	4b08      	ldr	r3, [pc, #32]	; (80004f4 <MX_FREERTOS_Init+0x34>)
 80004d2:	4809      	ldr	r0, [pc, #36]	; (80004f8 <MX_FREERTOS_Init+0x38>)
 80004d4:	f001 fbd6 	bl	8001c84 <osTimerNew>
 80004d8:	4b08      	ldr	r3, [pc, #32]	; (80004fc <MX_FREERTOS_Init+0x3c>)
 80004da:	2100      	movs	r1, #0
 80004dc:	6018      	str	r0, [r3, #0]
 80004de:	4a08      	ldr	r2, [pc, #32]	; (8000500 <MX_FREERTOS_Init+0x40>)
 80004e0:	4808      	ldr	r0, [pc, #32]	; (8000504 <MX_FREERTOS_Init+0x44>)
 80004e2:	f001 fb57 	bl	8001b94 <osThreadNew>
 80004e6:	4b08      	ldr	r3, [pc, #32]	; (8000508 <MX_FREERTOS_Init+0x48>)
 80004e8:	6018      	str	r0, [r3, #0]
 80004ea:	bd08      	pop	{r3, pc}
 80004ec:	08003748 	.word	0x08003748
 80004f0:	200000a8 	.word	0x200000a8
 80004f4:	0800377c 	.word	0x0800377c
 80004f8:	080004b5 	.word	0x080004b5
 80004fc:	200000b0 	.word	0x200000b0
 8000500:	08003758 	.word	0x08003758
 8000504:	080004b7 	.word	0x080004b7
 8000508:	200000ac 	.word	0x200000ac

0800050c <MX_GPIO_Init>:
 800050c:	2210      	movs	r2, #16
 800050e:	e92d 43f0 	stmdb	sp!, {r4, r5, r6, r7, r8, r9, lr}
 8000512:	b089      	sub	sp, #36	; 0x24
 8000514:	eb0d 0002 	add.w	r0, sp, r2
 8000518:	2100      	movs	r1, #0
 800051a:	f003 f8ef 	bl	80036fc <memset>
 800051e:	4b3a      	ldr	r3, [pc, #232]	; (8000608 <MX_GPIO_Init+0xfc>)
 8000520:	f8df 90e8 	ldr.w	r9, [pc, #232]	; 800060c <MX_GPIO_Init+0x100>
 8000524:	699a      	ldr	r2, [r3, #24]
 8000526:	4d3a      	ldr	r5, [pc, #232]	; (8000610 <MX_GPIO_Init+0x104>)
 8000528:	f042 0210 	orr.w	r2, r2, #16
 800052c:	619a      	str	r2, [r3, #24]
 800052e:	699a      	ldr	r2, [r3, #24]
 8000530:	4648      	mov	r0, r9
 8000532:	f002 0210 	and.w	r2, r2, #16
 8000536:	9200      	str	r2, [sp, #0]
 8000538:	9a00      	ldr	r2, [sp, #0]
 800053a:	699a      	ldr	r2, [r3, #24]
 800053c:	f8df 80d4 	ldr.w	r8, [pc, #212]	; 8000614 <MX_GPIO_Init+0x108>
 8000540:	f042 0220 	orr.w	r2, r2, #32
 8000544:	619a      	str	r2, [r3, #24]
 8000546:	699a      	ldr	r2, [r3, #24]
 8000548:	f44f 4100 	mov.w	r1, #32768	; 0x8000
 800054c:	f002 0220 	and.w	r2, r2, #32
 8000550:	9201      	str	r2, [sp, #4]
 8000552:	9a01      	ldr	r2, [sp, #4]
 8000554:	699a      	ldr	r2, [r3, #24]
 8000556:	2400      	movs	r4, #0
 8000558:	f042 0204 	orr.w	r2, r2, #4
 800055c:	619a      	str	r2, [r3, #24]
 800055e:	699a      	ldr	r2, [r3, #24]
 8000560:	2601      	movs	r6, #1
 8000562:	f002 0204 	and.w	r2, r2, #4
 8000566:	9202      	str	r2, [sp, #8]
 8000568:	9a02      	ldr	r2, [sp, #8]
 800056a:	699a      	ldr	r2, [r3, #24]
 800056c:	2702      	movs	r7, #2
 800056e:	f042 0208 	orr.w	r2, r2, #8
 8000572:	619a      	str	r2, [r3, #24]
 8000574:	699b      	ldr	r3, [r3, #24]
 8000576:	2200      	movs	r2, #0
 8000578:	f003 0308 	and.w	r3, r3, #8
 800057c:	9303      	str	r3, [sp, #12]
 800057e:	9b03      	ldr	r3, [sp, #12]
 8000580:	f000 fde2 	bl	8001148 <HAL_GPIO_WritePin>
 8000584:	4628      	mov	r0, r5
 8000586:	2200      	movs	r2, #0
 8000588:	f44f 718a 	mov.w	r1, #276	; 0x114
 800058c:	f000 fddc 	bl	8001148 <HAL_GPIO_WritePin>
 8000590:	2200      	movs	r2, #0
 8000592:	4640      	mov	r0, r8
 8000594:	f44f 4119 	mov.w	r1, #39168	; 0x9900
 8000598:	f000 fdd6 	bl	8001148 <HAL_GPIO_WritePin>
 800059c:	f44f 4300 	mov.w	r3, #32768	; 0x8000
 80005a0:	4648      	mov	r0, r9
 80005a2:	a904      	add	r1, sp, #16
 80005a4:	e9cd 3604 	strd	r3, r6, [sp, #16]
 80005a8:	e9cd 4706 	strd	r4, r7, [sp, #24]
 80005ac:	f000 fcf2 	bl	8000f94 <HAL_GPIO_Init>
 80005b0:	2214      	movs	r2, #20
 80005b2:	2311      	movs	r3, #17
 80005b4:	4628      	mov	r0, r5
 80005b6:	a904      	add	r1, sp, #16
 80005b8:	e9cd 2304 	strd	r2, r3, [sp, #16]
 80005bc:	e9cd 4706 	strd	r4, r7, [sp, #24]
 80005c0:	f000 fce8 	bl	8000f94 <HAL_GPIO_Init>
 80005c4:	f44f 4319 	mov.w	r3, #39168	; 0x9900
 80005c8:	4640      	mov	r0, r8
 80005ca:	a904      	add	r1, sp, #16
 80005cc:	e9cd 3604 	strd	r3, r6, [sp, #16]
 80005d0:	e9cd 4706 	strd	r4, r7, [sp, #24]
 80005d4:	f000 fcde 	bl	8000f94 <HAL_GPIO_Init>
 80005d8:	f44f 7308 	mov.w	r3, #544	; 0x220
 80005dc:	4628      	mov	r0, r5
 80005de:	a904      	add	r1, sp, #16
 80005e0:	e9cd 3404 	strd	r3, r4, [sp, #16]
 80005e4:	9406      	str	r4, [sp, #24]
 80005e6:	f000 fcd5 	bl	8000f94 <HAL_GPIO_Init>
 80005ea:	f44f 7380 	mov.w	r3, #256	; 0x100
 80005ee:	e9cd 3604 	strd	r3, r6, [sp, #16]
 80005f2:	2303      	movs	r3, #3
 80005f4:	4628      	mov	r0, r5
 80005f6:	a904      	add	r1, sp, #16
 80005f8:	9406      	str	r4, [sp, #24]
 80005fa:	9307      	str	r3, [sp, #28]
 80005fc:	f000 fcca 	bl	8000f94 <HAL_GPIO_Init>
 8000600:	b009      	add	sp, #36	; 0x24
 8000602:	e8bd 83f0 	ldmia.w	sp!, {r4, r5, r6, r7, r8, r9, pc}
 8000606:	bf00      	nop
 8000608:	40021000 	.word	0x40021000
 800060c:	40011000 	.word	0x40011000
 8000610:	40010c00 	.word	0x40010c00
 8000614:	40010800 	.word	0x40010800

08000618 <SystemClock_Config>:
 8000618:	b510      	push	{r4, lr}
 800061a:	b092      	sub	sp, #72	; 0x48
 800061c:	2214      	movs	r2, #20
 800061e:	2100      	movs	r1, #0
 8000620:	a80a      	add	r0, sp, #40	; 0x28
 8000622:	f003 f86b 	bl	80036fc <memset>
 8000626:	2100      	movs	r1, #0
 8000628:	2214      	movs	r2, #20
 800062a:	a803      	add	r0, sp, #12
 800062c:	f003 f866 	bl	80036fc <memset>
 8000630:	2300      	movs	r3, #0
 8000632:	2201      	movs	r2, #1
 8000634:	e9cd 3300 	strd	r3, r3, [sp]
 8000638:	9302      	str	r3, [sp, #8]
 800063a:	2402      	movs	r4, #2
 800063c:	f44f 3380 	mov.w	r3, #65536	; 0x10000
 8000640:	e9cd 2308 	strd	r2, r3, [sp, #32]
 8000644:	e9cd 430f 	strd	r4, r3, [sp, #60]	; 0x3c
 8000648:	f44f 2380 	mov.w	r3, #262144	; 0x40000
 800064c:	a808      	add	r0, sp, #32
 800064e:	9311      	str	r3, [sp, #68]	; 0x44
 8000650:	f000 fd88 	bl	8001164 <HAL_RCC_OscConfig>
 8000654:	4601      	mov	r1, r0
 8000656:	b108      	cbz	r0, 800065c <SystemClock_Config+0x44>
 8000658:	b672      	cpsid	i
 800065a:	e7fe      	b.n	800065a <SystemClock_Config+0x42>
 800065c:	230f      	movs	r3, #15
 800065e:	e9cd 0005 	strd	r0, r0, [sp, #20]
 8000662:	9007      	str	r0, [sp, #28]
 8000664:	a803      	add	r0, sp, #12
 8000666:	e9cd 3403 	strd	r3, r4, [sp, #12]
 800066a:	f000 ff5b 	bl	8001524 <HAL_RCC_ClockConfig>
 800066e:	b108      	cbz	r0, 8000674 <SystemClock_Config+0x5c>
 8000670:	b672      	cpsid	i
 8000672:	e7fe      	b.n	8000672 <SystemClock_Config+0x5a>
 8000674:	9002      	str	r0, [sp, #8]
 8000676:	4668      	mov	r0, sp
 8000678:	9400      	str	r4, [sp, #0]
 800067a:	f000 fffd 	bl	8001678 <HAL_RCCEx_PeriphCLKConfig>
 800067e:	b108      	cbz	r0, 8000684 <SystemClock_Config+0x6c>
 8000680:	b672      	cpsid	i
 8000682:	e7fe      	b.n	8000682 <SystemClock_Config+0x6a>
 8000684:	b012      	add	sp, #72	; 0x48
 8000686:	bd10      	pop	{r4, pc}

08000688 <main>:
 8000688:	b508      	push	{r3, lr}
 800068a:	f000 f996 	bl	80009ba <HAL_Init>
 800068e:	f7ff ffc3 	bl	8000618 <SystemClock_Config>
 8000692:	f7ff ff3b 	bl	800050c <MX_GPIO_Init>
 8000696:	f7ff feed 	bl	8000474 <MX_DMA_Init>
 800069a:	f7ff fdb9 	bl	8000210 <MX_ADC1_Init>
 800069e:	f7ff fec5 	bl	800042c <MX_CRC_Init>
 80006a2:	f000 f8a5 	bl	80007f0 <MX_USART1_UART_Init>
 80006a6:	f000 f8c1 	bl	800082c <MX_USART3_UART_Init>
 80006aa:	f001 fa37 	bl	8001b1c <osKernelInitialize>
 80006ae:	f7ff ff07 	bl	80004c0 <MX_FREERTOS_Init>
 80006b2:	f001 fa4f 	bl	8001b54 <osKernelStart>
 80006b6:	4c05      	ldr	r4, [pc, #20]	; (80006cc <main+0x44>)
 80006b8:	4620      	mov	r0, r4
 80006ba:	f44f 4100 	mov.w	r1, #32768	; 0x8000
 80006be:	f000 fd48 	bl	8001152 <HAL_GPIO_TogglePin>
 80006c2:	f44f 707a 	mov.w	r0, #1000	; 0x3e8
 80006c6:	f000 f995 	bl	80009f4 <HAL_Delay>
 80006ca:	e7f5      	b.n	80006b8 <main+0x30>
 80006cc:	40011000 	.word	0x40011000

080006d0 <HAL_TIM_PeriodElapsedCallback>:
 80006d0:	6802      	ldr	r2, [r0, #0]
 80006d2:	4b03      	ldr	r3, [pc, #12]	; (80006e0 <HAL_TIM_PeriodElapsedCallback+0x10>)
 80006d4:	429a      	cmp	r2, r3
 80006d6:	d101      	bne.n	80006dc <HAL_TIM_PeriodElapsedCallback+0xc>
 80006d8:	f000 b97a 	b.w	80009d0 <HAL_IncTick>
 80006dc:	4770      	bx	lr
 80006de:	bf00      	nop
 80006e0:	40012c00 	.word	0x40012c00

080006e4 <Error_Handler>:
 80006e4:	b672      	cpsid	i
 80006e6:	e7fe      	b.n	80006e6 <Error_Handler+0x2>

080006e8 <HAL_MspInit>:
 80006e8:	4b11      	ldr	r3, [pc, #68]	; (8000730 <HAL_MspInit+0x48>)
 80006ea:	b507      	push	{r0, r1, r2, lr}
 80006ec:	699a      	ldr	r2, [r3, #24]
 80006ee:	210f      	movs	r1, #15
 80006f0:	f042 0201 	orr.w	r2, r2, #1
 80006f4:	619a      	str	r2, [r3, #24]
 80006f6:	699a      	ldr	r2, [r3, #24]
 80006f8:	f06f 0001 	mvn.w	r0, #1
 80006fc:	f002 0201 	and.w	r2, r2, #1
 8000700:	9200      	str	r2, [sp, #0]
 8000702:	9a00      	ldr	r2, [sp, #0]
 8000704:	69da      	ldr	r2, [r3, #28]
 8000706:	f042 5280 	orr.w	r2, r2, #268435456	; 0x10000000
 800070a:	61da      	str	r2, [r3, #28]
 800070c:	69db      	ldr	r3, [r3, #28]
 800070e:	2200      	movs	r2, #0
 8000710:	f003 5380 	and.w	r3, r3, #268435456	; 0x10000000
 8000714:	9301      	str	r3, [sp, #4]
 8000716:	9b01      	ldr	r3, [sp, #4]
 8000718:	f000 fb2c 	bl	8000d74 <HAL_NVIC_SetPriority>
 800071c:	4a05      	ldr	r2, [pc, #20]	; (8000734 <HAL_MspInit+0x4c>)
 800071e:	6853      	ldr	r3, [r2, #4]
 8000720:	f023 63e0 	bic.w	r3, r3, #117440512	; 0x7000000
 8000724:	f043 6380 	orr.w	r3, r3, #67108864	; 0x4000000
 8000728:	6053      	str	r3, [r2, #4]
 800072a:	b003      	add	sp, #12
 800072c:	f85d fb04 	ldr.w	pc, [sp], #4
 8000730:	40021000 	.word	0x40021000
 8000734:	40010000 	.word	0x40010000

08000738 <HAL_InitTick>:
 8000738:	b510      	push	{r4, lr}
 800073a:	4601      	mov	r1, r0
 800073c:	b088      	sub	sp, #32
 800073e:	2200      	movs	r2, #0
 8000740:	2019      	movs	r0, #25
 8000742:	f000 fb17 	bl	8000d74 <HAL_NVIC_SetPriority>
 8000746:	2019      	movs	r0, #25
 8000748:	f000 fb46 	bl	8000dd8 <HAL_NVIC_EnableIRQ>
 800074c:	4b14      	ldr	r3, [pc, #80]	; (80007a0 <HAL_InitTick+0x68>)
 800074e:	a901      	add	r1, sp, #4
 8000750:	699a      	ldr	r2, [r3, #24]
 8000752:	a803      	add	r0, sp, #12
 8000754:	f442 6200 	orr.w	r2, r2, #2048	; 0x800
 8000758:	619a      	str	r2, [r3, #24]
 800075a:	699b      	ldr	r3, [r3, #24]
 800075c:	4c11      	ldr	r4, [pc, #68]	; (80007a4 <HAL_InitTick+0x6c>)
 800075e:	f403 6300 	and.w	r3, r3, #2048	; 0x800
 8000762:	9302      	str	r3, [sp, #8]
 8000764:	9b02      	ldr	r3, [sp, #8]
 8000766:	f000 ff6d 	bl	8001644 <HAL_RCC_GetClockConfig>
 800076a:	f000 ff5b 	bl	8001624 <HAL_RCC_GetPCLK2Freq>
 800076e:	4b0e      	ldr	r3, [pc, #56]	; (80007a8 <HAL_InitTick+0x70>)
 8000770:	6023      	str	r3, [r4, #0]
 8000772:	f240 33e7 	movw	r3, #999	; 0x3e7
 8000776:	60e3      	str	r3, [r4, #12]
 8000778:	4b0c      	ldr	r3, [pc, #48]	; (80007ac <HAL_InitTick+0x74>)
 800077a:	fbb0 f0f3 	udiv	r0, r0, r3
 800077e:	2300      	movs	r3, #0
 8000780:	3801      	subs	r0, #1
 8000782:	6060      	str	r0, [r4, #4]
 8000784:	4620      	mov	r0, r4
 8000786:	6123      	str	r3, [r4, #16]
 8000788:	60a3      	str	r3, [r4, #8]
 800078a:	f001 f90d 	bl	80019a8 <HAL_TIM_Base_Init>
 800078e:	b920      	cbnz	r0, 800079a <HAL_InitTick+0x62>
 8000790:	4620      	mov	r0, r4
 8000792:	f000 ffe3 	bl	800175c <HAL_TIM_Base_Start_IT>
 8000796:	b008      	add	sp, #32
 8000798:	bd10      	pop	{r4, pc}
 800079a:	2001      	movs	r0, #1
 800079c:	e7fb      	b.n	8000796 <HAL_InitTick+0x5e>
 800079e:	bf00      	nop
 80007a0:	40021000 	.word	0x40021000
 80007a4:	200000b4 	.word	0x200000b4
 80007a8:	40012c00 	.word	0x40012c00
 80007ac:	000f4240 	.word	0x000f4240

080007b0 <NMI_Handler>:
 80007b0:	e7fe      	b.n	80007b0 <NMI_Handler>

080007b2 <HardFault_Handler>:
 80007b2:	e7fe      	b.n	80007b2 <HardFault_Handler>

080007b4 <MemManage_Handler>:
 80007b4:	e7fe      	b.n	80007b4 <MemManage_Handler>

080007b6 <BusFault_Handler>:
 80007b6:	e7fe      	b.n	80007b6 <BusFault_Handler>

080007b8 <UsageFault_Handler>:
 80007b8:	e7fe      	b.n	80007b8 <UsageFault_Handler>

080007ba <DebugMon_Handler>:
 80007ba:	4770      	bx	lr

080007bc <DMA1_Channel1_IRQHandler>:
 80007bc:	4801      	ldr	r0, [pc, #4]	; (80007c4 <DMA1_Channel1_IRQHandler+0x8>)
 80007be:	f000 bb57 	b.w	8000e70 <HAL_DMA_IRQHandler>
 80007c2:	bf00      	nop
 80007c4:	2000005c 	.word	0x2000005c

080007c8 <DMA1_Channel5_IRQHandler>:
 80007c8:	4801      	ldr	r0, [pc, #4]	; (80007d0 <DMA1_Channel5_IRQHandler+0x8>)
 80007ca:	f000 bb51 	b.w	8000e70 <HAL_DMA_IRQHandler>
 80007ce:	bf00      	nop
 80007d0:	200000fc 	.word	0x200000fc

080007d4 <ADC1_IRQHandler>:
 80007d4:	4801      	ldr	r0, [pc, #4]	; (80007dc <ADC1_IRQHandler+0x8>)
 80007d6:	f000 b921 	b.w	8000a1c <HAL_ADC_IRQHandler>
 80007da:	bf00      	nop
 80007dc:	2000002c 	.word	0x2000002c

080007e0 <TIM1_UP_TIM16_IRQHandler>:
 80007e0:	4801      	ldr	r0, [pc, #4]	; (80007e8 <TIM1_UP_TIM16_IRQHandler+0x8>)
 80007e2:	f000 bfed 	b.w	80017c0 <HAL_TIM_IRQHandler>
 80007e6:	bf00      	nop
 80007e8:	200000b4 	.word	0x200000b4

080007ec <SystemInit>:
 80007ec:	4770      	bx	lr
	...

080007f0 <MX_USART1_UART_Init>:
 80007f0:	b508      	push	{r3, lr}
 80007f2:	480b      	ldr	r0, [pc, #44]	; (8000820 <MX_USART1_UART_Init+0x30>)
 80007f4:	4a0b      	ldr	r2, [pc, #44]	; (8000824 <MX_USART1_UART_Init+0x34>)
 80007f6:	4b0c      	ldr	r3, [pc, #48]	; (8000828 <MX_USART1_UART_Init+0x38>)
 80007f8:	e9c0 2300 	strd	r2, r3, [r0]
 80007fc:	2300      	movs	r3, #0
 80007fe:	f44f 5200 	mov.w	r2, #8192	; 0x2000
 8000802:	e9c0 3202 	strd	r3, r2, [r0, #8]
 8000806:	220c      	movs	r2, #12
 8000808:	6103      	str	r3, [r0, #16]
 800080a:	e9c0 2305 	strd	r2, r3, [r0, #20]
 800080e:	61c3      	str	r3, [r0, #28]
 8000810:	f001 f94c 	bl	8001aac <HAL_UART_Init>
 8000814:	b118      	cbz	r0, 800081e <MX_USART1_UART_Init+0x2e>
 8000816:	e8bd 4008 	ldmia.w	sp!, {r3, lr}
 800081a:	f7ff bf63 	b.w	80006e4 <Error_Handler>
 800081e:	bd08      	pop	{r3, pc}
 8000820:	20000140 	.word	0x20000140
 8000824:	40013800 	.word	0x40013800
 8000828:	000f4240 	.word	0x000f4240

0800082c <MX_USART3_UART_Init>:
 800082c:	b508      	push	{r3, lr}
 800082e:	f44f 33e1 	mov.w	r3, #115200	; 0x1c200
 8000832:	480a      	ldr	r0, [pc, #40]	; (800085c <MX_USART3_UART_Init+0x30>)
 8000834:	4a0a      	ldr	r2, [pc, #40]	; (8000860 <MX_USART3_UART_Init+0x34>)
 8000836:	e9c0 2300 	strd	r2, r3, [r0]
 800083a:	2300      	movs	r3, #0
 800083c:	220c      	movs	r2, #12
 800083e:	e9c0 3302 	strd	r3, r3, [r0, #8]
 8000842:	e9c0 2305 	strd	r2, r3, [r0, #20]
 8000846:	6103      	str	r3, [r0, #16]
 8000848:	61c3      	str	r3, [r0, #28]
 800084a:	f001 f92f 	bl	8001aac <HAL_UART_Init>
 800084e:	b118      	cbz	r0, 8000858 <MX_USART3_UART_Init+0x2c>
 8000850:	e8bd 4008 	ldmia.w	sp!, {r3, lr}
 8000854:	f7ff bf46 	b.w	80006e4 <Error_Handler>
 8000858:	bd08      	pop	{r3, pc}
 800085a:	bf00      	nop
 800085c:	20000184 	.word	0x20000184
 8000860:	40004800 	.word	0x40004800

08000864 <HAL_UART_MspInit>:
 8000864:	2210      	movs	r2, #16
 8000866:	b570      	push	{r4, r5, r6, lr}
 8000868:	4606      	mov	r6, r0
 800086a:	b088      	sub	sp, #32
 800086c:	eb0d 0002 	add.w	r0, sp, r2
 8000870:	2100      	movs	r1, #0
 8000872:	f002 ff43 	bl	80036fc <memset>
 8000876:	6833      	ldr	r3, [r6, #0]
 8000878:	4a36      	ldr	r2, [pc, #216]	; (8000954 <HAL_UART_MspInit+0xf0>)
 800087a:	4293      	cmp	r3, r2
 800087c:	d13e      	bne.n	80008fc <HAL_UART_MspInit+0x98>
 800087e:	4b36      	ldr	r3, [pc, #216]	; (8000958 <HAL_UART_MspInit+0xf4>)
 8000880:	f44f 7000 	mov.w	r0, #512	; 0x200
 8000884:	699a      	ldr	r2, [r3, #24]
 8000886:	a904      	add	r1, sp, #16
 8000888:	f442 4280 	orr.w	r2, r2, #16384	; 0x4000
 800088c:	619a      	str	r2, [r3, #24]
 800088e:	699a      	ldr	r2, [r3, #24]
 8000890:	2500      	movs	r5, #0
 8000892:	f402 4280 	and.w	r2, r2, #16384	; 0x4000
 8000896:	9200      	str	r2, [sp, #0]
 8000898:	9a00      	ldr	r2, [sp, #0]
 800089a:	699a      	ldr	r2, [r3, #24]
 800089c:	4c2f      	ldr	r4, [pc, #188]	; (800095c <HAL_UART_MspInit+0xf8>)
 800089e:	f042 0204 	orr.w	r2, r2, #4
 80008a2:	619a      	str	r2, [r3, #24]
 80008a4:	699b      	ldr	r3, [r3, #24]
 80008a6:	f003 0304 	and.w	r3, r3, #4
 80008aa:	9301      	str	r3, [sp, #4]
 80008ac:	9b01      	ldr	r3, [sp, #4]
 80008ae:	2302      	movs	r3, #2
 80008b0:	e9cd 0304 	strd	r0, r3, [sp, #16]
 80008b4:	2303      	movs	r3, #3
 80008b6:	482a      	ldr	r0, [pc, #168]	; (8000960 <HAL_UART_MspInit+0xfc>)
 80008b8:	9307      	str	r3, [sp, #28]
 80008ba:	f000 fb6b 	bl	8000f94 <HAL_GPIO_Init>
 80008be:	f44f 6380 	mov.w	r3, #1024	; 0x400
 80008c2:	e9cd 3504 	strd	r3, r5, [sp, #16]
 80008c6:	2301      	movs	r3, #1
 80008c8:	4825      	ldr	r0, [pc, #148]	; (8000960 <HAL_UART_MspInit+0xfc>)
 80008ca:	a904      	add	r1, sp, #16
 80008cc:	9306      	str	r3, [sp, #24]
 80008ce:	f000 fb61 	bl	8000f94 <HAL_GPIO_Init>
 80008d2:	4b24      	ldr	r3, [pc, #144]	; (8000964 <HAL_UART_MspInit+0x100>)
 80008d4:	4620      	mov	r0, r4
 80008d6:	e9c4 3500 	strd	r3, r5, [r4]
 80008da:	2380      	movs	r3, #128	; 0x80
 80008dc:	e9c4 3503 	strd	r3, r5, [r4, #12]
 80008e0:	2320      	movs	r3, #32
 80008e2:	60a5      	str	r5, [r4, #8]
 80008e4:	e9c4 3506 	strd	r3, r5, [r4, #24]
 80008e8:	6165      	str	r5, [r4, #20]
 80008ea:	f000 fa93 	bl	8000e14 <HAL_DMA_Init>
 80008ee:	b108      	cbz	r0, 80008f4 <HAL_UART_MspInit+0x90>
 80008f0:	f7ff fef8 	bl	80006e4 <Error_Handler>
 80008f4:	63b4      	str	r4, [r6, #56]	; 0x38
 80008f6:	6266      	str	r6, [r4, #36]	; 0x24
 80008f8:	b008      	add	sp, #32
 80008fa:	bd70      	pop	{r4, r5, r6, pc}
 80008fc:	4a1a      	ldr	r2, [pc, #104]	; (8000968 <HAL_UART_MspInit+0x104>)
 80008fe:	4293      	cmp	r3, r2
 8000900:	d1fa      	bne.n	80008f8 <HAL_UART_MspInit+0x94>
 8000902:	4b15      	ldr	r3, [pc, #84]	; (8000958 <HAL_UART_MspInit+0xf4>)
 8000904:	a904      	add	r1, sp, #16
 8000906:	69da      	ldr	r2, [r3, #28]
 8000908:	4818      	ldr	r0, [pc, #96]	; (800096c <HAL_UART_MspInit+0x108>)
 800090a:	f442 2280 	orr.w	r2, r2, #262144	; 0x40000
 800090e:	61da      	str	r2, [r3, #28]
 8000910:	69da      	ldr	r2, [r3, #28]
 8000912:	f402 2280 	and.w	r2, r2, #262144	; 0x40000
 8000916:	9202      	str	r2, [sp, #8]
 8000918:	9a02      	ldr	r2, [sp, #8]
 800091a:	699a      	ldr	r2, [r3, #24]
 800091c:	f042 0208 	orr.w	r2, r2, #8
 8000920:	619a      	str	r2, [r3, #24]
 8000922:	699b      	ldr	r3, [r3, #24]
 8000924:	f44f 6280 	mov.w	r2, #1024	; 0x400
 8000928:	f003 0308 	and.w	r3, r3, #8
 800092c:	9303      	str	r3, [sp, #12]
 800092e:	9b03      	ldr	r3, [sp, #12]
 8000930:	2302      	movs	r3, #2
 8000932:	e9cd 2304 	strd	r2, r3, [sp, #16]
 8000936:	2303      	movs	r3, #3
 8000938:	9307      	str	r3, [sp, #28]
 800093a:	f000 fb2b 	bl	8000f94 <HAL_GPIO_Init>
 800093e:	2300      	movs	r3, #0
 8000940:	f44f 6100 	mov.w	r1, #2048	; 0x800
 8000944:	4809      	ldr	r0, [pc, #36]	; (800096c <HAL_UART_MspInit+0x108>)
 8000946:	e9cd 1304 	strd	r1, r3, [sp, #16]
 800094a:	a904      	add	r1, sp, #16
 800094c:	9306      	str	r3, [sp, #24]
 800094e:	f000 fb21 	bl	8000f94 <HAL_GPIO_Init>
 8000952:	e7d1      	b.n	80008f8 <HAL_UART_MspInit+0x94>
 8000954:	40013800 	.word	0x40013800
 8000958:	40021000 	.word	0x40021000
 800095c:	200000fc 	.word	0x200000fc
 8000960:	40010800 	.word	0x40010800
 8000964:	40020058 	.word	0x40020058
 8000968:	40004800 	.word	0x40004800
 800096c:	40010c00 	.word	0x40010c00

08000970 <Reset_Handler>:
 8000970:	480c      	ldr	r0, [pc, #48]	; (80009a4 <LoopFillZerobss+0x12>)
 8000972:	490d      	ldr	r1, [pc, #52]	; (80009a8 <LoopFillZerobss+0x16>)
 8000974:	4a0d      	ldr	r2, [pc, #52]	; (80009ac <LoopFillZerobss+0x1a>)
 8000976:	2300      	movs	r3, #0
 8000978:	e002      	b.n	8000980 <LoopCopyDataInit>

0800097a <CopyDataInit>:
 800097a:	58d4      	ldr	r4, [r2, r3]
 800097c:	50c4      	str	r4, [r0, r3]
 800097e:	3304      	adds	r3, #4

08000980 <LoopCopyDataInit>:
 8000980:	18c4      	adds	r4, r0, r3
 8000982:	428c      	cmp	r4, r1
 8000984:	d3f9      	bcc.n	800097a <CopyDataInit>
 8000986:	4a0a      	ldr	r2, [pc, #40]	; (80009b0 <LoopFillZerobss+0x1e>)
 8000988:	4c0a      	ldr	r4, [pc, #40]	; (80009b4 <LoopFillZerobss+0x22>)
 800098a:	2300      	movs	r3, #0
 800098c:	e001      	b.n	8000992 <LoopFillZerobss>

0800098e <FillZerobss>:
 800098e:	6013      	str	r3, [r2, #0]
 8000990:	3204      	adds	r2, #4

08000992 <LoopFillZerobss>:
 8000992:	42a2      	cmp	r2, r4
 8000994:	d3fb      	bcc.n	800098e <FillZerobss>
 8000996:	f7ff ff29 	bl	80007ec <SystemInit>
 800099a:	f002 fe7d 	bl	8003698 <__libc_init_array>
 800099e:	f7ff fe73 	bl	8000688 <main>
 80009a2:	4770      	bx	lr
 80009a4:	20000000 	.word	0x20000000
 80009a8:	20000010 	.word	0x20000010
 80009ac:	080037e0 	.word	0x080037e0
 80009b0:	20000010 	.word	0x20000010
 80009b4:	200016f8 	.word	0x200016f8

080009b8 <CEC_IRQHandler>:
 80009b8:	e7fe      	b.n	80009b8 <CEC_IRQHandler>

080009ba <HAL_Init>:
 80009ba:	b508      	push	{r3, lr}
 80009bc:	2003      	movs	r0, #3
 80009be:	f000 f9c7 	bl	8000d50 <HAL_NVIC_SetPriorityGrouping>
 80009c2:	2000      	movs	r0, #0
 80009c4:	f7ff feb8 	bl	8000738 <HAL_InitTick>
 80009c8:	f7ff fe8e 	bl	80006e8 <HAL_MspInit>
 80009cc:	2000      	movs	r0, #0
 80009ce:	bd08      	pop	{r3, pc}

080009d0 <HAL_IncTick>:
 80009d0:	4a03      	ldr	r2, [pc, #12]	; (80009e0 <HAL_IncTick+0x10>)
 80009d2:	4b04      	ldr	r3, [pc, #16]	; (80009e4 <HAL_IncTick+0x14>)
 80009d4:	6811      	ldr	r1, [r2, #0]
 80009d6:	781b      	ldrb	r3, [r3, #0]
 80009d8:	440b      	add	r3, r1
 80009da:	6013      	str	r3, [r2, #0]
 80009dc:	4770      	bx	lr
 80009de:	bf00      	nop
 80009e0:	200001c8 	.word	0x200001c8
 80009e4:	20000004 	.word	0x20000004

080009e8 <HAL_GetTick>:
 80009e8:	4b01      	ldr	r3, [pc, #4]	; (80009f0 <HAL_GetTick+0x8>)
 80009ea:	6818      	ldr	r0, [r3, #0]
 80009ec:	4770      	bx	lr
 80009ee:	bf00      	nop
 80009f0:	200001c8 	.word	0x200001c8

080009f4 <HAL_Delay>:
 80009f4:	b538      	push	{r3, r4, r5, lr}
 80009f6:	4604      	mov	r4, r0
 80009f8:	f7ff fff6 	bl	80009e8 <HAL_GetTick>
 80009fc:	4605      	mov	r5, r0
 80009fe:	1c63      	adds	r3, r4, #1
 8000a00:	bf1e      	ittt	ne
 8000a02:	4b04      	ldrne	r3, [pc, #16]	; (8000a14 <HAL_Delay+0x20>)
 8000a04:	781b      	ldrbne	r3, [r3, #0]
 8000a06:	18e4      	addne	r4, r4, r3
 8000a08:	f7ff ffee 	bl	80009e8 <HAL_GetTick>
 8000a0c:	1b43      	subs	r3, r0, r5
 8000a0e:	42a3      	cmp	r3, r4
 8000a10:	d3fa      	bcc.n	8000a08 <HAL_Delay+0x14>
 8000a12:	bd38      	pop	{r3, r4, r5, pc}
 8000a14:	20000004 	.word	0x20000004

08000a18 <HAL_ADC_ConvCpltCallback>:
 8000a18:	4770      	bx	lr

08000a1a <HAL_ADC_LevelOutOfWindowCallback>:
 8000a1a:	4770      	bx	lr

08000a1c <HAL_ADC_IRQHandler>:
 8000a1c:	6803      	ldr	r3, [r0, #0]
 8000a1e:	b510      	push	{r4, lr}
 8000a20:	685a      	ldr	r2, [r3, #4]
 8000a22:	4604      	mov	r4, r0
 8000a24:	0690      	lsls	r0, r2, #26
 8000a26:	d527      	bpl.n	8000a78 <HAL_ADC_IRQHandler+0x5c>
 8000a28:	681a      	ldr	r2, [r3, #0]
 8000a2a:	0791      	lsls	r1, r2, #30
 8000a2c:	d524      	bpl.n	8000a78 <HAL_ADC_IRQHandler+0x5c>
 8000a2e:	6aa2      	ldr	r2, [r4, #40]	; 0x28
 8000a30:	06d2      	lsls	r2, r2, #27
 8000a32:	bf5e      	ittt	pl
 8000a34:	6aa2      	ldrpl	r2, [r4, #40]	; 0x28
 8000a36:	f442 7200 	orrpl.w	r2, r2, #512	; 0x200
 8000a3a:	62a2      	strpl	r2, [r4, #40]	; 0x28
 8000a3c:	689a      	ldr	r2, [r3, #8]
 8000a3e:	f402 2260 	and.w	r2, r2, #917504	; 0xe0000
 8000a42:	f5b2 2f60 	cmp.w	r2, #917504	; 0xe0000
 8000a46:	d110      	bne.n	8000a6a <HAL_ADC_IRQHandler+0x4e>
 8000a48:	7b22      	ldrb	r2, [r4, #12]
 8000a4a:	b972      	cbnz	r2, 8000a6a <HAL_ADC_IRQHandler+0x4e>
 8000a4c:	685a      	ldr	r2, [r3, #4]
 8000a4e:	f022 0220 	bic.w	r2, r2, #32
 8000a52:	605a      	str	r2, [r3, #4]
 8000a54:	6aa3      	ldr	r3, [r4, #40]	; 0x28
 8000a56:	f423 7380 	bic.w	r3, r3, #256	; 0x100
 8000a5a:	62a3      	str	r3, [r4, #40]	; 0x28
 8000a5c:	6aa3      	ldr	r3, [r4, #40]	; 0x28
 8000a5e:	04db      	lsls	r3, r3, #19
 8000a60:	bf5e      	ittt	pl
 8000a62:	6aa3      	ldrpl	r3, [r4, #40]	; 0x28
 8000a64:	f043 0301 	orrpl.w	r3, r3, #1
 8000a68:	62a3      	strpl	r3, [r4, #40]	; 0x28
 8000a6a:	4620      	mov	r0, r4
 8000a6c:	f7ff ffd4 	bl	8000a18 <HAL_ADC_ConvCpltCallback>
 8000a70:	f06f 0212 	mvn.w	r2, #18
 8000a74:	6823      	ldr	r3, [r4, #0]
 8000a76:	601a      	str	r2, [r3, #0]
 8000a78:	6823      	ldr	r3, [r4, #0]
 8000a7a:	685a      	ldr	r2, [r3, #4]
 8000a7c:	0610      	lsls	r0, r2, #24
 8000a7e:	d530      	bpl.n	8000ae2 <HAL_ADC_IRQHandler+0xc6>
 8000a80:	681a      	ldr	r2, [r3, #0]
 8000a82:	0751      	lsls	r1, r2, #29
 8000a84:	d52d      	bpl.n	8000ae2 <HAL_ADC_IRQHandler+0xc6>
 8000a86:	6aa2      	ldr	r2, [r4, #40]	; 0x28
 8000a88:	06d2      	lsls	r2, r2, #27
 8000a8a:	bf5e      	ittt	pl
 8000a8c:	6aa2      	ldrpl	r2, [r4, #40]	; 0x28
 8000a8e:	f442 5200 	orrpl.w	r2, r2, #8192	; 0x2000
 8000a92:	62a2      	strpl	r2, [r4, #40]	; 0x28
 8000a94:	689a      	ldr	r2, [r3, #8]
 8000a96:	f402 42e0 	and.w	r2, r2, #28672	; 0x7000
 8000a9a:	f5b2 4fe0 	cmp.w	r2, #28672	; 0x7000
 8000a9e:	d00a      	beq.n	8000ab6 <HAL_ADC_IRQHandler+0x9a>
 8000aa0:	685a      	ldr	r2, [r3, #4]
 8000aa2:	0550      	lsls	r0, r2, #21
 8000aa4:	d416      	bmi.n	8000ad4 <HAL_ADC_IRQHandler+0xb8>
 8000aa6:	689a      	ldr	r2, [r3, #8]
 8000aa8:	f402 2260 	and.w	r2, r2, #917504	; 0xe0000
 8000aac:	f5b2 2f60 	cmp.w	r2, #917504	; 0xe0000
 8000ab0:	d110      	bne.n	8000ad4 <HAL_ADC_IRQHandler+0xb8>
 8000ab2:	7b22      	ldrb	r2, [r4, #12]
 8000ab4:	b972      	cbnz	r2, 8000ad4 <HAL_ADC_IRQHandler+0xb8>
 8000ab6:	685a      	ldr	r2, [r3, #4]
 8000ab8:	f022 0280 	bic.w	r2, r2, #128	; 0x80
 8000abc:	605a      	str	r2, [r3, #4]
 8000abe:	6aa3      	ldr	r3, [r4, #40]	; 0x28
 8000ac0:	f423 5380 	bic.w	r3, r3, #4096	; 0x1000
 8000ac4:	62a3      	str	r3, [r4, #40]	; 0x28
 8000ac6:	6aa3      	ldr	r3, [r4, #40]	; 0x28
 8000ac8:	05d9      	lsls	r1, r3, #23
 8000aca:	bf5e      	ittt	pl
 8000acc:	6aa3      	ldrpl	r3, [r4, #40]	; 0x28
 8000ace:	f043 0301 	orrpl.w	r3, r3, #1
 8000ad2:	62a3      	strpl	r3, [r4, #40]	; 0x28
 8000ad4:	4620      	mov	r0, r4
 8000ad6:	f000 f939 	bl	8000d4c <HAL_ADCEx_InjectedConvCpltCallback>
 8000ada:	f06f 020c 	mvn.w	r2, #12
 8000ade:	6823      	ldr	r3, [r4, #0]
 8000ae0:	601a      	str	r2, [r3, #0]
 8000ae2:	6823      	ldr	r3, [r4, #0]
 8000ae4:	685a      	ldr	r2, [r3, #4]
 8000ae6:	0652      	lsls	r2, r2, #25
 8000ae8:	d50d      	bpl.n	8000b06 <HAL_ADC_IRQHandler+0xea>
 8000aea:	681b      	ldr	r3, [r3, #0]
 8000aec:	07db      	lsls	r3, r3, #31
 8000aee:	d50a      	bpl.n	8000b06 <HAL_ADC_IRQHandler+0xea>
 8000af0:	6aa3      	ldr	r3, [r4, #40]	; 0x28
 8000af2:	4620      	mov	r0, r4
 8000af4:	f443 3380 	orr.w	r3, r3, #65536	; 0x10000
 8000af8:	62a3      	str	r3, [r4, #40]	; 0x28
 8000afa:	f7ff ff8e 	bl	8000a1a <HAL_ADC_LevelOutOfWindowCallback>
 8000afe:	f06f 0201 	mvn.w	r2, #1
 8000b02:	6823      	ldr	r3, [r4, #0]
 8000b04:	601a      	str	r2, [r3, #0]
 8000b06:	bd10      	pop	{r4, pc}

08000b08 <HAL_ADC_ConfigChannel>:
 8000b08:	2300      	movs	r3, #0
 8000b0a:	b573      	push	{r0, r1, r4, r5, r6, lr}
 8000b0c:	9301      	str	r3, [sp, #4]
 8000b0e:	f890 3024 	ldrb.w	r3, [r0, #36]	; 0x24
 8000b12:	4604      	mov	r4, r0
 8000b14:	2b01      	cmp	r3, #1
 8000b16:	d06c      	beq.n	8000bf2 <HAL_ADC_ConfigChannel+0xea>
 8000b18:	2301      	movs	r3, #1
 8000b1a:	f880 3024 	strb.w	r3, [r0, #36]	; 0x24
 8000b1e:	684d      	ldr	r5, [r1, #4]
 8000b20:	6802      	ldr	r2, [r0, #0]
 8000b22:	2d06      	cmp	r5, #6
 8000b24:	6808      	ldr	r0, [r1, #0]
 8000b26:	eb05 0385 	add.w	r3, r5, r5, lsl #2
 8000b2a:	d822      	bhi.n	8000b72 <HAL_ADC_ConfigChannel+0x6a>
 8000b2c:	261f      	movs	r6, #31
 8000b2e:	6b55      	ldr	r5, [r2, #52]	; 0x34
 8000b30:	3b05      	subs	r3, #5
 8000b32:	409e      	lsls	r6, r3
 8000b34:	ea25 0506 	bic.w	r5, r5, r6
 8000b38:	fa00 f303 	lsl.w	r3, r0, r3
 8000b3c:	432b      	orrs	r3, r5
 8000b3e:	6353      	str	r3, [r2, #52]	; 0x34
 8000b40:	2809      	cmp	r0, #9
 8000b42:	688b      	ldr	r3, [r1, #8]
 8000b44:	eb00 0540 	add.w	r5, r0, r0, lsl #1
 8000b48:	f04f 0107 	mov.w	r1, #7
 8000b4c:	d929      	bls.n	8000ba2 <HAL_ADC_ConfigChannel+0x9a>
 8000b4e:	68d6      	ldr	r6, [r2, #12]
 8000b50:	3d1e      	subs	r5, #30
 8000b52:	40a9      	lsls	r1, r5
 8000b54:	ea26 0101 	bic.w	r1, r6, r1
 8000b58:	40ab      	lsls	r3, r5
 8000b5a:	430b      	orrs	r3, r1
 8000b5c:	60d3      	str	r3, [r2, #12]
 8000b5e:	f1a0 0310 	sub.w	r3, r0, #16
 8000b62:	2b01      	cmp	r3, #1
 8000b64:	d925      	bls.n	8000bb2 <HAL_ADC_ConfigChannel+0xaa>
 8000b66:	2000      	movs	r0, #0
 8000b68:	2300      	movs	r3, #0
 8000b6a:	f884 3024 	strb.w	r3, [r4, #36]	; 0x24
 8000b6e:	b002      	add	sp, #8
 8000b70:	bd70      	pop	{r4, r5, r6, pc}
 8000b72:	2d0c      	cmp	r5, #12
 8000b74:	f04f 051f 	mov.w	r5, #31
 8000b78:	d809      	bhi.n	8000b8e <HAL_ADC_ConfigChannel+0x86>
 8000b7a:	6b16      	ldr	r6, [r2, #48]	; 0x30
 8000b7c:	3b23      	subs	r3, #35	; 0x23
 8000b7e:	409d      	lsls	r5, r3
 8000b80:	ea26 0505 	bic.w	r5, r6, r5
 8000b84:	fa00 f303 	lsl.w	r3, r0, r3
 8000b88:	432b      	orrs	r3, r5
 8000b8a:	6313      	str	r3, [r2, #48]	; 0x30
 8000b8c:	e7d8      	b.n	8000b40 <HAL_ADC_ConfigChannel+0x38>
 8000b8e:	6ad6      	ldr	r6, [r2, #44]	; 0x2c
 8000b90:	3b41      	subs	r3, #65	; 0x41
 8000b92:	409d      	lsls	r5, r3
 8000b94:	ea26 0505 	bic.w	r5, r6, r5
 8000b98:	fa00 f303 	lsl.w	r3, r0, r3
 8000b9c:	432b      	orrs	r3, r5
 8000b9e:	62d3      	str	r3, [r2, #44]	; 0x2c
 8000ba0:	e7ce      	b.n	8000b40 <HAL_ADC_ConfigChannel+0x38>
 8000ba2:	6910      	ldr	r0, [r2, #16]
 8000ba4:	40a9      	lsls	r1, r5
 8000ba6:	ea20 0101 	bic.w	r1, r0, r1
 8000baa:	40ab      	lsls	r3, r5
 8000bac:	430b      	orrs	r3, r1
 8000bae:	6113      	str	r3, [r2, #16]
 8000bb0:	e7d9      	b.n	8000b66 <HAL_ADC_ConfigChannel+0x5e>
 8000bb2:	4b11      	ldr	r3, [pc, #68]	; (8000bf8 <HAL_ADC_ConfigChannel+0xf0>)
 8000bb4:	429a      	cmp	r2, r3
 8000bb6:	d116      	bne.n	8000be6 <HAL_ADC_ConfigChannel+0xde>
 8000bb8:	6893      	ldr	r3, [r2, #8]
 8000bba:	021b      	lsls	r3, r3, #8
 8000bbc:	d4d3      	bmi.n	8000b66 <HAL_ADC_ConfigChannel+0x5e>
 8000bbe:	6893      	ldr	r3, [r2, #8]
 8000bc0:	2810      	cmp	r0, #16
 8000bc2:	f443 0300 	orr.w	r3, r3, #8388608	; 0x800000
 8000bc6:	6093      	str	r3, [r2, #8]
 8000bc8:	d1cd      	bne.n	8000b66 <HAL_ADC_ConfigChannel+0x5e>
 8000bca:	4b0c      	ldr	r3, [pc, #48]	; (8000bfc <HAL_ADC_ConfigChannel+0xf4>)
 8000bcc:	4a0c      	ldr	r2, [pc, #48]	; (8000c00 <HAL_ADC_ConfigChannel+0xf8>)
 8000bce:	681b      	ldr	r3, [r3, #0]
 8000bd0:	fbb3 f3f2 	udiv	r3, r3, r2
 8000bd4:	220a      	movs	r2, #10
 8000bd6:	4353      	muls	r3, r2
 8000bd8:	9301      	str	r3, [sp, #4]
 8000bda:	9b01      	ldr	r3, [sp, #4]
 8000bdc:	2b00      	cmp	r3, #0
 8000bde:	d0c2      	beq.n	8000b66 <HAL_ADC_ConfigChannel+0x5e>
 8000be0:	9b01      	ldr	r3, [sp, #4]
 8000be2:	3b01      	subs	r3, #1
 8000be4:	e7f8      	b.n	8000bd8 <HAL_ADC_ConfigChannel+0xd0>
 8000be6:	6aa3      	ldr	r3, [r4, #40]	; 0x28
 8000be8:	2001      	movs	r0, #1
 8000bea:	f043 0320 	orr.w	r3, r3, #32
 8000bee:	62a3      	str	r3, [r4, #40]	; 0x28
 8000bf0:	e7ba      	b.n	8000b68 <HAL_ADC_ConfigChannel+0x60>
 8000bf2:	2002      	movs	r0, #2
 8000bf4:	e7bb      	b.n	8000b6e <HAL_ADC_ConfigChannel+0x66>
 8000bf6:	bf00      	nop
 8000bf8:	40012400 	.word	0x40012400
 8000bfc:	20000000 	.word	0x20000000
 8000c00:	000f4240 	.word	0x000f4240

08000c04 <ADC_ConversionStop_Disable>:
 8000c04:	b538      	push	{r3, r4, r5, lr}
 8000c06:	6803      	ldr	r3, [r0, #0]
 8000c08:	4604      	mov	r4, r0
 8000c0a:	689a      	ldr	r2, [r3, #8]
 8000c0c:	07d1      	lsls	r1, r2, #31
 8000c0e:	d401      	bmi.n	8000c14 <ADC_ConversionStop_Disable+0x10>
 8000c10:	2000      	movs	r0, #0
 8000c12:	bd38      	pop	{r3, r4, r5, pc}
 8000c14:	689a      	ldr	r2, [r3, #8]
 8000c16:	f022 0201 	bic.w	r2, r2, #1
 8000c1a:	609a      	str	r2, [r3, #8]
 8000c1c:	f7ff fee4 	bl	80009e8 <HAL_GetTick>
 8000c20:	4605      	mov	r5, r0
 8000c22:	6823      	ldr	r3, [r4, #0]
 8000c24:	689b      	ldr	r3, [r3, #8]
 8000c26:	07db      	lsls	r3, r3, #31
 8000c28:	d5f2      	bpl.n	8000c10 <ADC_ConversionStop_Disable+0xc>
 8000c2a:	f7ff fedd 	bl	80009e8 <HAL_GetTick>
 8000c2e:	1b40      	subs	r0, r0, r5
 8000c30:	2802      	cmp	r0, #2
 8000c32:	d9f6      	bls.n	8000c22 <ADC_ConversionStop_Disable+0x1e>
 8000c34:	6823      	ldr	r3, [r4, #0]
 8000c36:	689b      	ldr	r3, [r3, #8]
 8000c38:	07da      	lsls	r2, r3, #31
 8000c3a:	d5f2      	bpl.n	8000c22 <ADC_ConversionStop_Disable+0x1e>
 8000c3c:	6aa3      	ldr	r3, [r4, #40]	; 0x28
 8000c3e:	2001      	movs	r0, #1
 8000c40:	f043 0310 	orr.w	r3, r3, #16
 8000c44:	62a3      	str	r3, [r4, #40]	; 0x28
 8000c46:	6ae3      	ldr	r3, [r4, #44]	; 0x2c
 8000c48:	f043 0301 	orr.w	r3, r3, #1
 8000c4c:	62e3      	str	r3, [r4, #44]	; 0x2c
 8000c4e:	e7e0      	b.n	8000c12 <ADC_ConversionStop_Disable+0xe>

08000c50 <HAL_ADC_Init>:
 8000c50:	b5f8      	push	{r3, r4, r5, r6, r7, lr}
 8000c52:	4604      	mov	r4, r0
 8000c54:	2800      	cmp	r0, #0
 8000c56:	d06e      	beq.n	8000d36 <HAL_ADC_Init+0xe6>
 8000c58:	6a83      	ldr	r3, [r0, #40]	; 0x28
 8000c5a:	b923      	cbnz	r3, 8000c66 <HAL_ADC_Init+0x16>
 8000c5c:	62c3      	str	r3, [r0, #44]	; 0x2c
 8000c5e:	f880 3024 	strb.w	r3, [r0, #36]	; 0x24
 8000c62:	f7ff fb7b 	bl	800035c <HAL_ADC_MspInit>
 8000c66:	4620      	mov	r0, r4
 8000c68:	f7ff ffcc 	bl	8000c04 <ADC_ConversionStop_Disable>
 8000c6c:	6aa3      	ldr	r3, [r4, #40]	; 0x28
 8000c6e:	f013 0310 	ands.w	r3, r3, #16
 8000c72:	d162      	bne.n	8000d3a <HAL_ADC_Init+0xea>
 8000c74:	2800      	cmp	r0, #0
 8000c76:	d160      	bne.n	8000d3a <HAL_ADC_Init+0xea>
 8000c78:	6aa2      	ldr	r2, [r4, #40]	; 0x28
 8000c7a:	69e5      	ldr	r5, [r4, #28]
 8000c7c:	6861      	ldr	r1, [r4, #4]
 8000c7e:	f422 5288 	bic.w	r2, r2, #4352	; 0x1100
 8000c82:	f022 0202 	bic.w	r2, r2, #2
 8000c86:	f042 0202 	orr.w	r2, r2, #2
 8000c8a:	4329      	orrs	r1, r5
 8000c8c:	68a5      	ldr	r5, [r4, #8]
 8000c8e:	62a2      	str	r2, [r4, #40]	; 0x28
 8000c90:	7b22      	ldrb	r2, [r4, #12]
 8000c92:	f5b5 7f80 	cmp.w	r5, #256	; 0x100
 8000c96:	ea41 0142 	orr.w	r1, r1, r2, lsl #1
 8000c9a:	d037      	beq.n	8000d0c <HAL_ADC_Init+0xbc>
 8000c9c:	2d01      	cmp	r5, #1
 8000c9e:	bf14      	ite	ne
 8000ca0:	2700      	movne	r7, #0
 8000ca2:	f44f 7780 	moveq.w	r7, #256	; 0x100
 8000ca6:	7d26      	ldrb	r6, [r4, #20]
 8000ca8:	2e01      	cmp	r6, #1
 8000caa:	d106      	bne.n	8000cba <HAL_ADC_Init+0x6a>
 8000cac:	bb82      	cbnz	r2, 8000d10 <HAL_ADC_Init+0xc0>
 8000cae:	69a2      	ldr	r2, [r4, #24]
 8000cb0:	3a01      	subs	r2, #1
 8000cb2:	ea47 3642 	orr.w	r6, r7, r2, lsl #13
 8000cb6:	f446 6700 	orr.w	r7, r6, #2048	; 0x800
 8000cba:	6822      	ldr	r2, [r4, #0]
 8000cbc:	f5b5 7f80 	cmp.w	r5, #256	; 0x100
 8000cc0:	6856      	ldr	r6, [r2, #4]
 8000cc2:	f426 4669 	bic.w	r6, r6, #59648	; 0xe900
 8000cc6:	ea46 0607 	orr.w	r6, r6, r7
 8000cca:	6056      	str	r6, [r2, #4]
 8000ccc:	6897      	ldr	r7, [r2, #8]
 8000cce:	4e1d      	ldr	r6, [pc, #116]	; (8000d44 <HAL_ADC_Init+0xf4>)
 8000cd0:	ea06 0607 	and.w	r6, r6, r7
 8000cd4:	ea46 0601 	orr.w	r6, r6, r1
 8000cd8:	6096      	str	r6, [r2, #8]
 8000cda:	d001      	beq.n	8000ce0 <HAL_ADC_Init+0x90>
 8000cdc:	2d01      	cmp	r5, #1
 8000cde:	d102      	bne.n	8000ce6 <HAL_ADC_Init+0x96>
 8000ce0:	6923      	ldr	r3, [r4, #16]
 8000ce2:	3b01      	subs	r3, #1
 8000ce4:	051b      	lsls	r3, r3, #20
 8000ce6:	6ad5      	ldr	r5, [r2, #44]	; 0x2c
 8000ce8:	f425 0570 	bic.w	r5, r5, #15728640	; 0xf00000
 8000cec:	432b      	orrs	r3, r5
 8000cee:	62d3      	str	r3, [r2, #44]	; 0x2c
 8000cf0:	6892      	ldr	r2, [r2, #8]
 8000cf2:	4b15      	ldr	r3, [pc, #84]	; (8000d48 <HAL_ADC_Init+0xf8>)
 8000cf4:	4013      	ands	r3, r2
 8000cf6:	4299      	cmp	r1, r3
 8000cf8:	d113      	bne.n	8000d22 <HAL_ADC_Init+0xd2>
 8000cfa:	2300      	movs	r3, #0
 8000cfc:	62e3      	str	r3, [r4, #44]	; 0x2c
 8000cfe:	6aa3      	ldr	r3, [r4, #40]	; 0x28
 8000d00:	f023 0303 	bic.w	r3, r3, #3
 8000d04:	f043 0301 	orr.w	r3, r3, #1
 8000d08:	62a3      	str	r3, [r4, #40]	; 0x28
 8000d0a:	bdf8      	pop	{r3, r4, r5, r6, r7, pc}
 8000d0c:	462f      	mov	r7, r5
 8000d0e:	e7ca      	b.n	8000ca6 <HAL_ADC_Init+0x56>
 8000d10:	6aa2      	ldr	r2, [r4, #40]	; 0x28
 8000d12:	f042 0220 	orr.w	r2, r2, #32
 8000d16:	62a2      	str	r2, [r4, #40]	; 0x28
 8000d18:	6ae2      	ldr	r2, [r4, #44]	; 0x2c
 8000d1a:	f042 0201 	orr.w	r2, r2, #1
 8000d1e:	62e2      	str	r2, [r4, #44]	; 0x2c
 8000d20:	e7cb      	b.n	8000cba <HAL_ADC_Init+0x6a>
 8000d22:	6aa3      	ldr	r3, [r4, #40]	; 0x28
 8000d24:	f023 0312 	bic.w	r3, r3, #18
 8000d28:	f043 0310 	orr.w	r3, r3, #16
 8000d2c:	62a3      	str	r3, [r4, #40]	; 0x28
 8000d2e:	6ae3      	ldr	r3, [r4, #44]	; 0x2c
 8000d30:	f043 0301 	orr.w	r3, r3, #1
 8000d34:	62e3      	str	r3, [r4, #44]	; 0x2c
 8000d36:	2001      	movs	r0, #1
 8000d38:	e7e7      	b.n	8000d0a <HAL_ADC_Init+0xba>
 8000d3a:	6aa3      	ldr	r3, [r4, #40]	; 0x28
 8000d3c:	f043 0310 	orr.w	r3, r3, #16
 8000d40:	62a3      	str	r3, [r4, #40]	; 0x28
 8000d42:	e7f8      	b.n	8000d36 <HAL_ADC_Init+0xe6>
 8000d44:	ffe1f7fd 	.word	0xffe1f7fd
 8000d48:	ff1f0efe 	.word	0xff1f0efe

08000d4c <HAL_ADCEx_InjectedConvCpltCallback>:
 8000d4c:	4770      	bx	lr
	...

08000d50 <HAL_NVIC_SetPriorityGrouping>:
 8000d50:	4907      	ldr	r1, [pc, #28]	; (8000d70 <HAL_NVIC_SetPriorityGrouping+0x20>)
 8000d52:	0203      	lsls	r3, r0, #8
 8000d54:	68ca      	ldr	r2, [r1, #12]
 8000d56:	f403 63e0 	and.w	r3, r3, #1792	; 0x700
 8000d5a:	f422 62e0 	bic.w	r2, r2, #1792	; 0x700
 8000d5e:	0412      	lsls	r2, r2, #16
 8000d60:	0c12      	lsrs	r2, r2, #16
 8000d62:	4313      	orrs	r3, r2
 8000d64:	f043 63bf 	orr.w	r3, r3, #100139008	; 0x5f80000
 8000d68:	f443 3300 	orr.w	r3, r3, #131072	; 0x20000
 8000d6c:	60cb      	str	r3, [r1, #12]
 8000d6e:	4770      	bx	lr
 8000d70:	e000ed00 	.word	0xe000ed00

08000d74 <HAL_NVIC_SetPriority>:
 8000d74:	4b16      	ldr	r3, [pc, #88]	; (8000dd0 <HAL_NVIC_SetPriority+0x5c>)
 8000d76:	b530      	push	{r4, r5, lr}
 8000d78:	68dc      	ldr	r4, [r3, #12]
 8000d7a:	f3c4 2402 	ubfx	r4, r4, #8, #3
 8000d7e:	f1c4 0307 	rsb	r3, r4, #7
 8000d82:	1d25      	adds	r5, r4, #4
 8000d84:	2b04      	cmp	r3, #4
 8000d86:	bf28      	it	cs
 8000d88:	2304      	movcs	r3, #4
 8000d8a:	2d06      	cmp	r5, #6
 8000d8c:	f04f 35ff 	mov.w	r5, #4294967295
 8000d90:	bf98      	it	ls
 8000d92:	2400      	movls	r4, #0
 8000d94:	fa05 f303 	lsl.w	r3, r5, r3
 8000d98:	bf88      	it	hi
 8000d9a:	3c03      	subhi	r4, #3
 8000d9c:	ea21 0303 	bic.w	r3, r1, r3
 8000da0:	40a3      	lsls	r3, r4
 8000da2:	fa05 f404 	lsl.w	r4, r5, r4
 8000da6:	ea22 0204 	bic.w	r2, r2, r4
 8000daa:	2800      	cmp	r0, #0
 8000dac:	ea43 0302 	orr.w	r3, r3, r2
 8000db0:	bfac      	ite	ge
 8000db2:	f100 4060 	addge.w	r0, r0, #3758096384	; 0xe0000000
 8000db6:	4a07      	ldrlt	r2, [pc, #28]	; (8000dd4 <HAL_NVIC_SetPriority+0x60>)
 8000db8:	ea4f 1303 	mov.w	r3, r3, lsl #4
 8000dbc:	b2db      	uxtb	r3, r3
 8000dbe:	bfab      	itete	ge
 8000dc0:	f500 4061 	addge.w	r0, r0, #57600	; 0xe100
 8000dc4:	f000 000f 	andlt.w	r0, r0, #15
 8000dc8:	f880 3300 	strbge.w	r3, [r0, #768]	; 0x300
 8000dcc:	5413      	strblt	r3, [r2, r0]
 8000dce:	bd30      	pop	{r4, r5, pc}
 8000dd0:	e000ed00 	.word	0xe000ed00
 8000dd4:	e000ed14 	.word	0xe000ed14

08000dd8 <HAL_NVIC_EnableIRQ>:
 8000dd8:	2800      	cmp	r0, #0
 8000dda:	db08      	blt.n	8000dee <HAL_NVIC_EnableIRQ+0x16>
 8000ddc:	2301      	movs	r3, #1
 8000dde:	0942      	lsrs	r2, r0, #5
 8000de0:	f000 001f 	and.w	r0, r0, #31
 8000de4:	fa03 f000 	lsl.w	r0, r3, r0
 8000de8:	4b01      	ldr	r3, [pc, #4]	; (8000df0 <HAL_NVIC_EnableIRQ+0x18>)
 8000dea:	f843 0022 	str.w	r0, [r3, r2, lsl #2]
 8000dee:	4770      	bx	lr
 8000df0:	e000e100 	.word	0xe000e100

08000df4 <HAL_CRC_Init>:
 8000df4:	b510      	push	{r4, lr}
 8000df6:	4604      	mov	r4, r0
 8000df8:	b150      	cbz	r0, 8000e10 <HAL_CRC_Init+0x1c>
 8000dfa:	7943      	ldrb	r3, [r0, #5]
 8000dfc:	f003 02ff 	and.w	r2, r3, #255	; 0xff
 8000e00:	b913      	cbnz	r3, 8000e08 <HAL_CRC_Init+0x14>
 8000e02:	7102      	strb	r2, [r0, #4]
 8000e04:	f7ff fb22 	bl	800044c <HAL_CRC_MspInit>
 8000e08:	2301      	movs	r3, #1
 8000e0a:	2000      	movs	r0, #0
 8000e0c:	7163      	strb	r3, [r4, #5]
 8000e0e:	bd10      	pop	{r4, pc}
 8000e10:	2001      	movs	r0, #1
 8000e12:	e7fc      	b.n	8000e0e <HAL_CRC_Init+0x1a>

08000e14 <HAL_DMA_Init>:
 8000e14:	b510      	push	{r4, lr}
 8000e16:	b320      	cbz	r0, 8000e62 <HAL_DMA_Init+0x4e>
 8000e18:	2214      	movs	r2, #20
 8000e1a:	6801      	ldr	r1, [r0, #0]
 8000e1c:	4b12      	ldr	r3, [pc, #72]	; (8000e68 <HAL_DMA_Init+0x54>)
 8000e1e:	440b      	add	r3, r1
 8000e20:	fbb3 f3f2 	udiv	r3, r3, r2
 8000e24:	009b      	lsls	r3, r3, #2
 8000e26:	6403      	str	r3, [r0, #64]	; 0x40
 8000e28:	4b10      	ldr	r3, [pc, #64]	; (8000e6c <HAL_DMA_Init+0x58>)
 8000e2a:	680a      	ldr	r2, [r1, #0]
 8000e2c:	63c3      	str	r3, [r0, #60]	; 0x3c
 8000e2e:	e9d0 3401 	ldrd	r3, r4, [r0, #4]
 8000e32:	4323      	orrs	r3, r4
 8000e34:	68c4      	ldr	r4, [r0, #12]
 8000e36:	f422 527f 	bic.w	r2, r2, #16320	; 0x3fc0
 8000e3a:	4323      	orrs	r3, r4
 8000e3c:	6904      	ldr	r4, [r0, #16]
 8000e3e:	f022 0230 	bic.w	r2, r2, #48	; 0x30
 8000e42:	4323      	orrs	r3, r4
 8000e44:	6944      	ldr	r4, [r0, #20]
 8000e46:	4323      	orrs	r3, r4
 8000e48:	6984      	ldr	r4, [r0, #24]
 8000e4a:	4323      	orrs	r3, r4
 8000e4c:	69c4      	ldr	r4, [r0, #28]
 8000e4e:	4323      	orrs	r3, r4
 8000e50:	4313      	orrs	r3, r2
 8000e52:	600b      	str	r3, [r1, #0]
 8000e54:	f44f 7280 	mov.w	r2, #256	; 0x100
 8000e58:	2300      	movs	r3, #0
 8000e5a:	8402      	strh	r2, [r0, #32]
 8000e5c:	6383      	str	r3, [r0, #56]	; 0x38
 8000e5e:	4618      	mov	r0, r3
 8000e60:	bd10      	pop	{r4, pc}
 8000e62:	2001      	movs	r0, #1
 8000e64:	e7fc      	b.n	8000e60 <HAL_DMA_Init+0x4c>
 8000e66:	bf00      	nop
 8000e68:	bffdfff8 	.word	0xbffdfff8
 8000e6c:	40020000 	.word	0x40020000

08000e70 <HAL_DMA_IRQHandler>:
 8000e70:	b470      	push	{r4, r5, r6}
 8000e72:	2504      	movs	r5, #4
 8000e74:	6bc6      	ldr	r6, [r0, #60]	; 0x3c
 8000e76:	6c02      	ldr	r2, [r0, #64]	; 0x40
 8000e78:	6834      	ldr	r4, [r6, #0]
 8000e7a:	6803      	ldr	r3, [r0, #0]
 8000e7c:	4095      	lsls	r5, r2
 8000e7e:	4225      	tst	r5, r4
 8000e80:	6819      	ldr	r1, [r3, #0]
 8000e82:	d032      	beq.n	8000eea <HAL_DMA_IRQHandler+0x7a>
 8000e84:	074d      	lsls	r5, r1, #29
 8000e86:	d530      	bpl.n	8000eea <HAL_DMA_IRQHandler+0x7a>
 8000e88:	681a      	ldr	r2, [r3, #0]
 8000e8a:	0696      	lsls	r6, r2, #26
 8000e8c:	bf5e      	ittt	pl
 8000e8e:	681a      	ldrpl	r2, [r3, #0]
 8000e90:	f022 0204 	bicpl.w	r2, r2, #4
 8000e94:	601a      	strpl	r2, [r3, #0]
 8000e96:	4a3d      	ldr	r2, [pc, #244]	; (8000f8c <HAL_DMA_IRQHandler+0x11c>)
 8000e98:	4293      	cmp	r3, r2
 8000e9a:	d019      	beq.n	8000ed0 <HAL_DMA_IRQHandler+0x60>
 8000e9c:	3214      	adds	r2, #20
 8000e9e:	4293      	cmp	r3, r2
 8000ea0:	d018      	beq.n	8000ed4 <HAL_DMA_IRQHandler+0x64>
 8000ea2:	3214      	adds	r2, #20
 8000ea4:	4293      	cmp	r3, r2
 8000ea6:	d017      	beq.n	8000ed8 <HAL_DMA_IRQHandler+0x68>
 8000ea8:	3214      	adds	r2, #20
 8000eaa:	4293      	cmp	r3, r2
 8000eac:	d017      	beq.n	8000ede <HAL_DMA_IRQHandler+0x6e>
 8000eae:	3214      	adds	r2, #20
 8000eb0:	4293      	cmp	r3, r2
 8000eb2:	d017      	beq.n	8000ee4 <HAL_DMA_IRQHandler+0x74>
 8000eb4:	3214      	adds	r2, #20
 8000eb6:	4293      	cmp	r3, r2
 8000eb8:	bf0c      	ite	eq
 8000eba:	f44f 0380 	moveq.w	r3, #4194304	; 0x400000
 8000ebe:	f04f 6380 	movne.w	r3, #67108864	; 0x4000000
 8000ec2:	4a33      	ldr	r2, [pc, #204]	; (8000f90 <HAL_DMA_IRQHandler+0x120>)
 8000ec4:	6053      	str	r3, [r2, #4]
 8000ec6:	6ac3      	ldr	r3, [r0, #44]	; 0x2c
 8000ec8:	2b00      	cmp	r3, #0
 8000eca:	d05c      	beq.n	8000f86 <HAL_DMA_IRQHandler+0x116>
 8000ecc:	bc70      	pop	{r4, r5, r6}
 8000ece:	4718      	bx	r3
 8000ed0:	2304      	movs	r3, #4
 8000ed2:	e7f6      	b.n	8000ec2 <HAL_DMA_IRQHandler+0x52>
 8000ed4:	2340      	movs	r3, #64	; 0x40
 8000ed6:	e7f4      	b.n	8000ec2 <HAL_DMA_IRQHandler+0x52>
 8000ed8:	f44f 6380 	mov.w	r3, #1024	; 0x400
 8000edc:	e7f1      	b.n	8000ec2 <HAL_DMA_IRQHandler+0x52>
 8000ede:	f44f 4380 	mov.w	r3, #16384	; 0x4000
 8000ee2:	e7ee      	b.n	8000ec2 <HAL_DMA_IRQHandler+0x52>
 8000ee4:	f44f 2380 	mov.w	r3, #262144	; 0x40000
 8000ee8:	e7eb      	b.n	8000ec2 <HAL_DMA_IRQHandler+0x52>
 8000eea:	2502      	movs	r5, #2
 8000eec:	4095      	lsls	r5, r2
 8000eee:	4225      	tst	r5, r4
 8000ef0:	d035      	beq.n	8000f5e <HAL_DMA_IRQHandler+0xee>
 8000ef2:	078d      	lsls	r5, r1, #30
 8000ef4:	d533      	bpl.n	8000f5e <HAL_DMA_IRQHandler+0xee>
 8000ef6:	681a      	ldr	r2, [r3, #0]
 8000ef8:	0694      	lsls	r4, r2, #26
 8000efa:	d406      	bmi.n	8000f0a <HAL_DMA_IRQHandler+0x9a>
 8000efc:	681a      	ldr	r2, [r3, #0]
 8000efe:	f022 020a 	bic.w	r2, r2, #10
 8000f02:	601a      	str	r2, [r3, #0]
 8000f04:	2201      	movs	r2, #1
 8000f06:	f880 2021 	strb.w	r2, [r0, #33]	; 0x21
 8000f0a:	4a20      	ldr	r2, [pc, #128]	; (8000f8c <HAL_DMA_IRQHandler+0x11c>)
 8000f0c:	4293      	cmp	r3, r2
 8000f0e:	d019      	beq.n	8000f44 <HAL_DMA_IRQHandler+0xd4>
 8000f10:	3214      	adds	r2, #20
 8000f12:	4293      	cmp	r3, r2
 8000f14:	d018      	beq.n	8000f48 <HAL_DMA_IRQHandler+0xd8>
 8000f16:	3214      	adds	r2, #20
 8000f18:	4293      	cmp	r3, r2
 8000f1a:	d017      	beq.n	8000f4c <HAL_DMA_IRQHandler+0xdc>
 8000f1c:	3214      	adds	r2, #20
 8000f1e:	4293      	cmp	r3, r2
 8000f20:	d017      	beq.n	8000f52 <HAL_DMA_IRQHandler+0xe2>
 8000f22:	3214      	adds	r2, #20
 8000f24:	4293      	cmp	r3, r2
 8000f26:	d017      	beq.n	8000f58 <HAL_DMA_IRQHandler+0xe8>
 8000f28:	3214      	adds	r2, #20
 8000f2a:	4293      	cmp	r3, r2
 8000f2c:	bf0c      	ite	eq
 8000f2e:	f44f 1300 	moveq.w	r3, #2097152	; 0x200000
 8000f32:	f04f 7300 	movne.w	r3, #33554432	; 0x2000000
 8000f36:	4a16      	ldr	r2, [pc, #88]	; (8000f90 <HAL_DMA_IRQHandler+0x120>)
 8000f38:	6053      	str	r3, [r2, #4]
 8000f3a:	2300      	movs	r3, #0
 8000f3c:	f880 3020 	strb.w	r3, [r0, #32]
 8000f40:	6a83      	ldr	r3, [r0, #40]	; 0x28
 8000f42:	e7c1      	b.n	8000ec8 <HAL_DMA_IRQHandler+0x58>
 8000f44:	2302      	movs	r3, #2
 8000f46:	e7f6      	b.n	8000f36 <HAL_DMA_IRQHandler+0xc6>
 8000f48:	2320      	movs	r3, #32
 8000f4a:	e7f4      	b.n	8000f36 <HAL_DMA_IRQHandler+0xc6>
 8000f4c:	f44f 7300 	mov.w	r3, #512	; 0x200
 8000f50:	e7f1      	b.n	8000f36 <HAL_DMA_IRQHandler+0xc6>
 8000f52:	f44f 5300 	mov.w	r3, #8192	; 0x2000
 8000f56:	e7ee      	b.n	8000f36 <HAL_DMA_IRQHandler+0xc6>
 8000f58:	f44f 3300 	mov.w	r3, #131072	; 0x20000
 8000f5c:	e7eb      	b.n	8000f36 <HAL_DMA_IRQHandler+0xc6>
 8000f5e:	2508      	movs	r5, #8
 8000f60:	4095      	lsls	r5, r2
 8000f62:	4225      	tst	r5, r4
 8000f64:	d00f      	beq.n	8000f86 <HAL_DMA_IRQHandler+0x116>
 8000f66:	0709      	lsls	r1, r1, #28
 8000f68:	d50d      	bpl.n	8000f86 <HAL_DMA_IRQHandler+0x116>
 8000f6a:	6819      	ldr	r1, [r3, #0]
 8000f6c:	f021 010e 	bic.w	r1, r1, #14
 8000f70:	6019      	str	r1, [r3, #0]
 8000f72:	2301      	movs	r3, #1
 8000f74:	fa03 f202 	lsl.w	r2, r3, r2
 8000f78:	6072      	str	r2, [r6, #4]
 8000f7a:	6383      	str	r3, [r0, #56]	; 0x38
 8000f7c:	f44f 7380 	mov.w	r3, #256	; 0x100
 8000f80:	8403      	strh	r3, [r0, #32]
 8000f82:	6b03      	ldr	r3, [r0, #48]	; 0x30
 8000f84:	e7a0      	b.n	8000ec8 <HAL_DMA_IRQHandler+0x58>
 8000f86:	bc70      	pop	{r4, r5, r6}
 8000f88:	4770      	bx	lr
 8000f8a:	bf00      	nop
 8000f8c:	40020008 	.word	0x40020008
 8000f90:	40020000 	.word	0x40020000

08000f94 <HAL_GPIO_Init>:
 8000f94:	e92d 4ff7 	stmdb	sp!, {r0, r1, r2, r4, r5, r6, r7, r8, r9, sl, fp, lr}
 8000f98:	2200      	movs	r2, #0
 8000f9a:	4616      	mov	r6, r2
 8000f9c:	4f64      	ldr	r7, [pc, #400]	; (8001130 <HAL_GPIO_Init+0x19c>)
 8000f9e:	4b65      	ldr	r3, [pc, #404]	; (8001134 <HAL_GPIO_Init+0x1a0>)
 8000fa0:	f8df c194 	ldr.w	ip, [pc, #404]	; 8001138 <HAL_GPIO_Init+0x1a4>
 8000fa4:	f8df e194 	ldr.w	lr, [pc, #404]	; 800113c <HAL_GPIO_Init+0x1a8>
 8000fa8:	680d      	ldr	r5, [r1, #0]
 8000faa:	fa35 f406 	lsrs.w	r4, r5, r6
 8000fae:	d102      	bne.n	8000fb6 <HAL_GPIO_Init+0x22>
 8000fb0:	b003      	add	sp, #12
 8000fb2:	e8bd 8ff0 	ldmia.w	sp!, {r4, r5, r6, r7, r8, r9, sl, fp, pc}
 8000fb6:	f04f 0801 	mov.w	r8, #1
 8000fba:	fa08 f806 	lsl.w	r8, r8, r6
 8000fbe:	ea05 0408 	and.w	r4, r5, r8
 8000fc2:	ea38 0505 	bics.w	r5, r8, r5
 8000fc6:	d17b      	bne.n	80010c0 <HAL_GPIO_Init+0x12c>
 8000fc8:	684d      	ldr	r5, [r1, #4]
 8000fca:	2d03      	cmp	r5, #3
 8000fcc:	d807      	bhi.n	8000fde <HAL_GPIO_Init+0x4a>
 8000fce:	3d01      	subs	r5, #1
 8000fd0:	2d02      	cmp	r5, #2
 8000fd2:	f200 8088 	bhi.w	80010e6 <HAL_GPIO_Init+0x152>
 8000fd6:	e8df f005 	tbb	[pc, r5]
 8000fda:	9b96      	.short	0x9b96
 8000fdc:	a1          	.byte	0xa1
 8000fdd:	00          	.byte	0x00
 8000fde:	2d12      	cmp	r5, #18
 8000fe0:	f000 8099 	beq.w	8001116 <HAL_GPIO_Init+0x182>
 8000fe4:	d86e      	bhi.n	80010c4 <HAL_GPIO_Init+0x130>
 8000fe6:	2d11      	cmp	r5, #17
 8000fe8:	f000 808f 	beq.w	800110a <HAL_GPIO_Init+0x176>
 8000fec:	2cff      	cmp	r4, #255	; 0xff
 8000fee:	bf98      	it	ls
 8000ff0:	4682      	movls	sl, r0
 8000ff2:	f04f 090f 	mov.w	r9, #15
 8000ff6:	bf88      	it	hi
 8000ff8:	f100 0a04 	addhi.w	sl, r0, #4
 8000ffc:	ea4f 0586 	mov.w	r5, r6, lsl #2
 8001000:	f8da 8000 	ldr.w	r8, [sl]
 8001004:	bf88      	it	hi
 8001006:	3d20      	subhi	r5, #32
 8001008:	fa09 fb05 	lsl.w	fp, r9, r5
 800100c:	ea28 080b 	bic.w	r8, r8, fp
 8001010:	fa02 f505 	lsl.w	r5, r2, r5
 8001014:	ea48 0505 	orr.w	r5, r8, r5
 8001018:	f8ca 5000 	str.w	r5, [sl]
 800101c:	f8d1 a004 	ldr.w	sl, [r1, #4]
 8001020:	f01a 5f80 	tst.w	sl, #268435456	; 0x10000000
 8001024:	d04c      	beq.n	80010c0 <HAL_GPIO_Init+0x12c>
 8001026:	69bd      	ldr	r5, [r7, #24]
 8001028:	f026 0803 	bic.w	r8, r6, #3
 800102c:	f045 0501 	orr.w	r5, r5, #1
 8001030:	61bd      	str	r5, [r7, #24]
 8001032:	69bd      	ldr	r5, [r7, #24]
 8001034:	f108 4880 	add.w	r8, r8, #1073741824	; 0x40000000
 8001038:	f005 0501 	and.w	r5, r5, #1
 800103c:	9501      	str	r5, [sp, #4]
 800103e:	f508 3880 	add.w	r8, r8, #65536	; 0x10000
 8001042:	f006 0b03 	and.w	fp, r6, #3
 8001046:	9d01      	ldr	r5, [sp, #4]
 8001048:	ea4f 0b8b 	mov.w	fp, fp, lsl #2
 800104c:	f8d8 5008 	ldr.w	r5, [r8, #8]
 8001050:	fa09 f90b 	lsl.w	r9, r9, fp
 8001054:	ea25 0909 	bic.w	r9, r5, r9
 8001058:	4d39      	ldr	r5, [pc, #228]	; (8001140 <HAL_GPIO_Init+0x1ac>)
 800105a:	42a8      	cmp	r0, r5
 800105c:	d062      	beq.n	8001124 <HAL_GPIO_Init+0x190>
 800105e:	f505 6580 	add.w	r5, r5, #1024	; 0x400
 8001062:	42a8      	cmp	r0, r5
 8001064:	d060      	beq.n	8001128 <HAL_GPIO_Init+0x194>
 8001066:	f505 6580 	add.w	r5, r5, #1024	; 0x400
 800106a:	42a8      	cmp	r0, r5
 800106c:	d05e      	beq.n	800112c <HAL_GPIO_Init+0x198>
 800106e:	f505 6580 	add.w	r5, r5, #1024	; 0x400
 8001072:	42a8      	cmp	r0, r5
 8001074:	bf0c      	ite	eq
 8001076:	2503      	moveq	r5, #3
 8001078:	2504      	movne	r5, #4
 800107a:	fa05 f50b 	lsl.w	r5, r5, fp
 800107e:	ea45 0509 	orr.w	r5, r5, r9
 8001082:	f8c8 5008 	str.w	r5, [r8, #8]
 8001086:	681d      	ldr	r5, [r3, #0]
 8001088:	f41a 3f80 	tst.w	sl, #65536	; 0x10000
 800108c:	bf14      	ite	ne
 800108e:	4325      	orrne	r5, r4
 8001090:	43a5      	biceq	r5, r4
 8001092:	601d      	str	r5, [r3, #0]
 8001094:	685d      	ldr	r5, [r3, #4]
 8001096:	f41a 3f00 	tst.w	sl, #131072	; 0x20000
 800109a:	bf14      	ite	ne
 800109c:	4325      	orrne	r5, r4
 800109e:	43a5      	biceq	r5, r4
 80010a0:	605d      	str	r5, [r3, #4]
 80010a2:	689d      	ldr	r5, [r3, #8]
 80010a4:	f41a 1f80 	tst.w	sl, #1048576	; 0x100000
 80010a8:	bf14      	ite	ne
 80010aa:	4325      	orrne	r5, r4
 80010ac:	43a5      	biceq	r5, r4
 80010ae:	609d      	str	r5, [r3, #8]
 80010b0:	68dd      	ldr	r5, [r3, #12]
 80010b2:	f41a 1f00 	tst.w	sl, #2097152	; 0x200000
 80010b6:	bf14      	ite	ne
 80010b8:	432c      	orrne	r4, r5
 80010ba:	ea25 0404 	biceq.w	r4, r5, r4
 80010be:	60dc      	str	r4, [r3, #12]
 80010c0:	3601      	adds	r6, #1
 80010c2:	e771      	b.n	8000fa8 <HAL_GPIO_Init+0x14>
 80010c4:	f8df 907c 	ldr.w	r9, [pc, #124]	; 8001144 <HAL_GPIO_Init+0x1b0>
 80010c8:	454d      	cmp	r5, r9
 80010ca:	d00c      	beq.n	80010e6 <HAL_GPIO_Init+0x152>
 80010cc:	d817      	bhi.n	80010fe <HAL_GPIO_Init+0x16a>
 80010ce:	f5a9 1980 	sub.w	r9, r9, #1048576	; 0x100000
 80010d2:	454d      	cmp	r5, r9
 80010d4:	d007      	beq.n	80010e6 <HAL_GPIO_Init+0x152>
 80010d6:	f509 2970 	add.w	r9, r9, #983040	; 0xf0000
 80010da:	454d      	cmp	r5, r9
 80010dc:	d003      	beq.n	80010e6 <HAL_GPIO_Init+0x152>
 80010de:	f5a9 1980 	sub.w	r9, r9, #1048576	; 0x100000
 80010e2:	454d      	cmp	r5, r9
 80010e4:	d182      	bne.n	8000fec <HAL_GPIO_Init+0x58>
 80010e6:	688a      	ldr	r2, [r1, #8]
 80010e8:	b1d2      	cbz	r2, 8001120 <HAL_GPIO_Init+0x18c>
 80010ea:	2a01      	cmp	r2, #1
 80010ec:	bf08      	it	eq
 80010ee:	f8c0 8010 	streq.w	r8, [r0, #16]
 80010f2:	f04f 0208 	mov.w	r2, #8
 80010f6:	bf18      	it	ne
 80010f8:	f8c0 8014 	strne.w	r8, [r0, #20]
 80010fc:	e776      	b.n	8000fec <HAL_GPIO_Init+0x58>
 80010fe:	4565      	cmp	r5, ip
 8001100:	d0f1      	beq.n	80010e6 <HAL_GPIO_Init+0x152>
 8001102:	4575      	cmp	r5, lr
 8001104:	e7ee      	b.n	80010e4 <HAL_GPIO_Init+0x150>
 8001106:	68ca      	ldr	r2, [r1, #12]
 8001108:	e770      	b.n	8000fec <HAL_GPIO_Init+0x58>
 800110a:	68ca      	ldr	r2, [r1, #12]
 800110c:	3204      	adds	r2, #4
 800110e:	e76d      	b.n	8000fec <HAL_GPIO_Init+0x58>
 8001110:	68ca      	ldr	r2, [r1, #12]
 8001112:	3208      	adds	r2, #8
 8001114:	e76a      	b.n	8000fec <HAL_GPIO_Init+0x58>
 8001116:	68ca      	ldr	r2, [r1, #12]
 8001118:	320c      	adds	r2, #12
 800111a:	e767      	b.n	8000fec <HAL_GPIO_Init+0x58>
 800111c:	2200      	movs	r2, #0
 800111e:	e765      	b.n	8000fec <HAL_GPIO_Init+0x58>
 8001120:	2204      	movs	r2, #4
 8001122:	e763      	b.n	8000fec <HAL_GPIO_Init+0x58>
 8001124:	2500      	movs	r5, #0
 8001126:	e7a8      	b.n	800107a <HAL_GPIO_Init+0xe6>
 8001128:	2501      	movs	r5, #1
 800112a:	e7a6      	b.n	800107a <HAL_GPIO_Init+0xe6>
 800112c:	2502      	movs	r5, #2
 800112e:	e7a4      	b.n	800107a <HAL_GPIO_Init+0xe6>
 8001130:	40021000 	.word	0x40021000
 8001134:	40010400 	.word	0x40010400
 8001138:	10310000 	.word	0x10310000
 800113c:	10320000 	.word	0x10320000
 8001140:	40010800 	.word	0x40010800
 8001144:	10220000 	.word	0x10220000

08001148 <HAL_GPIO_WritePin>:
 8001148:	b10a      	cbz	r2, 800114e <HAL_GPIO_WritePin+0x6>
 800114a:	6101      	str	r1, [r0, #16]
 800114c:	4770      	bx	lr
 800114e:	0409      	lsls	r1, r1, #16
 8001150:	e7fb      	b.n	800114a <HAL_GPIO_WritePin+0x2>

08001152 <HAL_GPIO_TogglePin>:
 8001152:	68c3      	ldr	r3, [r0, #12]
 8001154:	ea01 0203 	and.w	r2, r1, r3
 8001158:	ea21 0103 	bic.w	r1, r1, r3
 800115c:	ea41 4102 	orr.w	r1, r1, r2, lsl #16
 8001160:	6101      	str	r1, [r0, #16]
 8001162:	4770      	bx	lr

08001164 <HAL_RCC_OscConfig>:
 8001164:	e92d 41f3 	stmdb	sp!, {r0, r1, r4, r5, r6, r7, r8, lr}
 8001168:	4605      	mov	r5, r0
 800116a:	b338      	cbz	r0, 80011bc <HAL_RCC_OscConfig+0x58>
 800116c:	6803      	ldr	r3, [r0, #0]
 800116e:	07db      	lsls	r3, r3, #31
 8001170:	d410      	bmi.n	8001194 <HAL_RCC_OscConfig+0x30>
 8001172:	682b      	ldr	r3, [r5, #0]
 8001174:	079f      	lsls	r7, r3, #30
 8001176:	d45e      	bmi.n	8001236 <HAL_RCC_OscConfig+0xd2>
 8001178:	682b      	ldr	r3, [r5, #0]
 800117a:	0719      	lsls	r1, r3, #28
 800117c:	f100 8095 	bmi.w	80012aa <HAL_RCC_OscConfig+0x146>
 8001180:	682b      	ldr	r3, [r5, #0]
 8001182:	075a      	lsls	r2, r3, #29
 8001184:	f100 80c1 	bmi.w	800130a <HAL_RCC_OscConfig+0x1a6>
 8001188:	69e8      	ldr	r0, [r5, #28]
 800118a:	2800      	cmp	r0, #0
 800118c:	f040 812c 	bne.w	80013e8 <HAL_RCC_OscConfig+0x284>
 8001190:	2000      	movs	r0, #0
 8001192:	e029      	b.n	80011e8 <HAL_RCC_OscConfig+0x84>
 8001194:	4c90      	ldr	r4, [pc, #576]	; (80013d8 <HAL_RCC_OscConfig+0x274>)
 8001196:	6863      	ldr	r3, [r4, #4]
 8001198:	f003 030c 	and.w	r3, r3, #12
 800119c:	2b04      	cmp	r3, #4
 800119e:	d007      	beq.n	80011b0 <HAL_RCC_OscConfig+0x4c>
 80011a0:	6863      	ldr	r3, [r4, #4]
 80011a2:	f003 030c 	and.w	r3, r3, #12
 80011a6:	2b08      	cmp	r3, #8
 80011a8:	d10a      	bne.n	80011c0 <HAL_RCC_OscConfig+0x5c>
 80011aa:	6863      	ldr	r3, [r4, #4]
 80011ac:	03de      	lsls	r6, r3, #15
 80011ae:	d507      	bpl.n	80011c0 <HAL_RCC_OscConfig+0x5c>
 80011b0:	6823      	ldr	r3, [r4, #0]
 80011b2:	039c      	lsls	r4, r3, #14
 80011b4:	d5dd      	bpl.n	8001172 <HAL_RCC_OscConfig+0xe>
 80011b6:	686b      	ldr	r3, [r5, #4]
 80011b8:	2b00      	cmp	r3, #0
 80011ba:	d1da      	bne.n	8001172 <HAL_RCC_OscConfig+0xe>
 80011bc:	2001      	movs	r0, #1
 80011be:	e013      	b.n	80011e8 <HAL_RCC_OscConfig+0x84>
 80011c0:	686b      	ldr	r3, [r5, #4]
 80011c2:	f5b3 3f80 	cmp.w	r3, #65536	; 0x10000
 80011c6:	d112      	bne.n	80011ee <HAL_RCC_OscConfig+0x8a>
 80011c8:	6823      	ldr	r3, [r4, #0]
 80011ca:	f443 3380 	orr.w	r3, r3, #65536	; 0x10000
 80011ce:	6023      	str	r3, [r4, #0]
 80011d0:	f7ff fc0a 	bl	80009e8 <HAL_GetTick>
 80011d4:	4606      	mov	r6, r0
 80011d6:	6823      	ldr	r3, [r4, #0]
 80011d8:	0398      	lsls	r0, r3, #14
 80011da:	d4ca      	bmi.n	8001172 <HAL_RCC_OscConfig+0xe>
 80011dc:	f7ff fc04 	bl	80009e8 <HAL_GetTick>
 80011e0:	1b80      	subs	r0, r0, r6
 80011e2:	2864      	cmp	r0, #100	; 0x64
 80011e4:	d9f7      	bls.n	80011d6 <HAL_RCC_OscConfig+0x72>
 80011e6:	2003      	movs	r0, #3
 80011e8:	b002      	add	sp, #8
 80011ea:	e8bd 81f0 	ldmia.w	sp!, {r4, r5, r6, r7, r8, pc}
 80011ee:	b99b      	cbnz	r3, 8001218 <HAL_RCC_OscConfig+0xb4>
 80011f0:	6823      	ldr	r3, [r4, #0]
 80011f2:	f423 3380 	bic.w	r3, r3, #65536	; 0x10000
 80011f6:	6023      	str	r3, [r4, #0]
 80011f8:	6823      	ldr	r3, [r4, #0]
 80011fa:	f423 2380 	bic.w	r3, r3, #262144	; 0x40000
 80011fe:	6023      	str	r3, [r4, #0]
 8001200:	f7ff fbf2 	bl	80009e8 <HAL_GetTick>
 8001204:	4606      	mov	r6, r0
 8001206:	6823      	ldr	r3, [r4, #0]
 8001208:	0399      	lsls	r1, r3, #14
 800120a:	d5b2      	bpl.n	8001172 <HAL_RCC_OscConfig+0xe>
 800120c:	f7ff fbec 	bl	80009e8 <HAL_GetTick>
 8001210:	1b80      	subs	r0, r0, r6
 8001212:	2864      	cmp	r0, #100	; 0x64
 8001214:	d9f7      	bls.n	8001206 <HAL_RCC_OscConfig+0xa2>
 8001216:	e7e6      	b.n	80011e6 <HAL_RCC_OscConfig+0x82>
 8001218:	f5b3 2fa0 	cmp.w	r3, #327680	; 0x50000
 800121c:	6823      	ldr	r3, [r4, #0]
 800121e:	d103      	bne.n	8001228 <HAL_RCC_OscConfig+0xc4>
 8001220:	f443 2380 	orr.w	r3, r3, #262144	; 0x40000
 8001224:	6023      	str	r3, [r4, #0]
 8001226:	e7cf      	b.n	80011c8 <HAL_RCC_OscConfig+0x64>
 8001228:	f423 3380 	bic.w	r3, r3, #65536	; 0x10000
 800122c:	6023      	str	r3, [r4, #0]
 800122e:	6823      	ldr	r3, [r4, #0]
 8001230:	f423 2380 	bic.w	r3, r3, #262144	; 0x40000
 8001234:	e7cb      	b.n	80011ce <HAL_RCC_OscConfig+0x6a>
 8001236:	4c68      	ldr	r4, [pc, #416]	; (80013d8 <HAL_RCC_OscConfig+0x274>)
 8001238:	6863      	ldr	r3, [r4, #4]
 800123a:	f013 0f0c 	tst.w	r3, #12
 800123e:	d007      	beq.n	8001250 <HAL_RCC_OscConfig+0xec>
 8001240:	6863      	ldr	r3, [r4, #4]
 8001242:	f003 030c 	and.w	r3, r3, #12
 8001246:	2b08      	cmp	r3, #8
 8001248:	d110      	bne.n	800126c <HAL_RCC_OscConfig+0x108>
 800124a:	6863      	ldr	r3, [r4, #4]
 800124c:	03da      	lsls	r2, r3, #15
 800124e:	d40d      	bmi.n	800126c <HAL_RCC_OscConfig+0x108>
 8001250:	6823      	ldr	r3, [r4, #0]
 8001252:	079b      	lsls	r3, r3, #30
 8001254:	d502      	bpl.n	800125c <HAL_RCC_OscConfig+0xf8>
 8001256:	692b      	ldr	r3, [r5, #16]
 8001258:	2b01      	cmp	r3, #1
 800125a:	d1af      	bne.n	80011bc <HAL_RCC_OscConfig+0x58>
 800125c:	6823      	ldr	r3, [r4, #0]
 800125e:	696a      	ldr	r2, [r5, #20]
 8001260:	f023 03f8 	bic.w	r3, r3, #248	; 0xf8
 8001264:	ea43 03c2 	orr.w	r3, r3, r2, lsl #3
 8001268:	6023      	str	r3, [r4, #0]
 800126a:	e785      	b.n	8001178 <HAL_RCC_OscConfig+0x14>
 800126c:	692a      	ldr	r2, [r5, #16]
 800126e:	4b5b      	ldr	r3, [pc, #364]	; (80013dc <HAL_RCC_OscConfig+0x278>)
 8001270:	b16a      	cbz	r2, 800128e <HAL_RCC_OscConfig+0x12a>
 8001272:	2201      	movs	r2, #1
 8001274:	601a      	str	r2, [r3, #0]
 8001276:	f7ff fbb7 	bl	80009e8 <HAL_GetTick>
 800127a:	4606      	mov	r6, r0
 800127c:	6823      	ldr	r3, [r4, #0]
 800127e:	079f      	lsls	r7, r3, #30
 8001280:	d4ec      	bmi.n	800125c <HAL_RCC_OscConfig+0xf8>
 8001282:	f7ff fbb1 	bl	80009e8 <HAL_GetTick>
 8001286:	1b80      	subs	r0, r0, r6
 8001288:	2802      	cmp	r0, #2
 800128a:	d9f7      	bls.n	800127c <HAL_RCC_OscConfig+0x118>
 800128c:	e7ab      	b.n	80011e6 <HAL_RCC_OscConfig+0x82>
 800128e:	601a      	str	r2, [r3, #0]
 8001290:	f7ff fbaa 	bl	80009e8 <HAL_GetTick>
 8001294:	4606      	mov	r6, r0
 8001296:	6823      	ldr	r3, [r4, #0]
 8001298:	0798      	lsls	r0, r3, #30
 800129a:	f57f af6d 	bpl.w	8001178 <HAL_RCC_OscConfig+0x14>
 800129e:	f7ff fba3 	bl	80009e8 <HAL_GetTick>
 80012a2:	1b80      	subs	r0, r0, r6
 80012a4:	2802      	cmp	r0, #2
 80012a6:	d9f6      	bls.n	8001296 <HAL_RCC_OscConfig+0x132>
 80012a8:	e79d      	b.n	80011e6 <HAL_RCC_OscConfig+0x82>
 80012aa:	69aa      	ldr	r2, [r5, #24]
 80012ac:	4e4a      	ldr	r6, [pc, #296]	; (80013d8 <HAL_RCC_OscConfig+0x274>)
 80012ae:	4b4b      	ldr	r3, [pc, #300]	; (80013dc <HAL_RCC_OscConfig+0x278>)
 80012b0:	b1e2      	cbz	r2, 80012ec <HAL_RCC_OscConfig+0x188>
 80012b2:	2201      	movs	r2, #1
 80012b4:	f8c3 2480 	str.w	r2, [r3, #1152]	; 0x480
 80012b8:	f7ff fb96 	bl	80009e8 <HAL_GetTick>
 80012bc:	4604      	mov	r4, r0
 80012be:	6a73      	ldr	r3, [r6, #36]	; 0x24
 80012c0:	079b      	lsls	r3, r3, #30
 80012c2:	d50d      	bpl.n	80012e0 <HAL_RCC_OscConfig+0x17c>
 80012c4:	f44f 52fa 	mov.w	r2, #8000	; 0x1f40
 80012c8:	4b45      	ldr	r3, [pc, #276]	; (80013e0 <HAL_RCC_OscConfig+0x27c>)
 80012ca:	681b      	ldr	r3, [r3, #0]
 80012cc:	fbb3 f3f2 	udiv	r3, r3, r2
 80012d0:	9301      	str	r3, [sp, #4]
 80012d2:	bf00      	nop
 80012d4:	9b01      	ldr	r3, [sp, #4]
 80012d6:	1e5a      	subs	r2, r3, #1
 80012d8:	9201      	str	r2, [sp, #4]
 80012da:	2b00      	cmp	r3, #0
 80012dc:	d1f9      	bne.n	80012d2 <HAL_RCC_OscConfig+0x16e>
 80012de:	e74f      	b.n	8001180 <HAL_RCC_OscConfig+0x1c>
 80012e0:	f7ff fb82 	bl	80009e8 <HAL_GetTick>
 80012e4:	1b00      	subs	r0, r0, r4
 80012e6:	2802      	cmp	r0, #2
 80012e8:	d9e9      	bls.n	80012be <HAL_RCC_OscConfig+0x15a>
 80012ea:	e77c      	b.n	80011e6 <HAL_RCC_OscConfig+0x82>
 80012ec:	f8c3 2480 	str.w	r2, [r3, #1152]	; 0x480
 80012f0:	f7ff fb7a 	bl	80009e8 <HAL_GetTick>
 80012f4:	4604      	mov	r4, r0
 80012f6:	6a73      	ldr	r3, [r6, #36]	; 0x24
 80012f8:	079f      	lsls	r7, r3, #30
 80012fa:	f57f af41 	bpl.w	8001180 <HAL_RCC_OscConfig+0x1c>
 80012fe:	f7ff fb73 	bl	80009e8 <HAL_GetTick>
 8001302:	1b00      	subs	r0, r0, r4
 8001304:	2802      	cmp	r0, #2
 8001306:	d9f6      	bls.n	80012f6 <HAL_RCC_OscConfig+0x192>
 8001308:	e76d      	b.n	80011e6 <HAL_RCC_OscConfig+0x82>
 800130a:	4c33      	ldr	r4, [pc, #204]	; (80013d8 <HAL_RCC_OscConfig+0x274>)
 800130c:	69e3      	ldr	r3, [r4, #28]
 800130e:	00d8      	lsls	r0, r3, #3
 8001310:	d424      	bmi.n	800135c <HAL_RCC_OscConfig+0x1f8>
 8001312:	2701      	movs	r7, #1
 8001314:	69e3      	ldr	r3, [r4, #28]
 8001316:	f043 5380 	orr.w	r3, r3, #268435456	; 0x10000000
 800131a:	61e3      	str	r3, [r4, #28]
 800131c:	69e3      	ldr	r3, [r4, #28]
 800131e:	f003 5380 	and.w	r3, r3, #268435456	; 0x10000000
 8001322:	9300      	str	r3, [sp, #0]
 8001324:	9b00      	ldr	r3, [sp, #0]
 8001326:	4e2f      	ldr	r6, [pc, #188]	; (80013e4 <HAL_RCC_OscConfig+0x280>)
 8001328:	6833      	ldr	r3, [r6, #0]
 800132a:	05d9      	lsls	r1, r3, #23
 800132c:	d518      	bpl.n	8001360 <HAL_RCC_OscConfig+0x1fc>
 800132e:	68eb      	ldr	r3, [r5, #12]
 8001330:	2b01      	cmp	r3, #1
 8001332:	d126      	bne.n	8001382 <HAL_RCC_OscConfig+0x21e>
 8001334:	6a23      	ldr	r3, [r4, #32]
 8001336:	f043 0301 	orr.w	r3, r3, #1
 800133a:	6223      	str	r3, [r4, #32]
 800133c:	f7ff fb54 	bl	80009e8 <HAL_GetTick>
 8001340:	f241 3888 	movw	r8, #5000	; 0x1388
 8001344:	4606      	mov	r6, r0
 8001346:	6a23      	ldr	r3, [r4, #32]
 8001348:	079b      	lsls	r3, r3, #30
 800134a:	d53f      	bpl.n	80013cc <HAL_RCC_OscConfig+0x268>
 800134c:	2f00      	cmp	r7, #0
 800134e:	f43f af1b 	beq.w	8001188 <HAL_RCC_OscConfig+0x24>
 8001352:	69e3      	ldr	r3, [r4, #28]
 8001354:	f023 5380 	bic.w	r3, r3, #268435456	; 0x10000000
 8001358:	61e3      	str	r3, [r4, #28]
 800135a:	e715      	b.n	8001188 <HAL_RCC_OscConfig+0x24>
 800135c:	2700      	movs	r7, #0
 800135e:	e7e2      	b.n	8001326 <HAL_RCC_OscConfig+0x1c2>
 8001360:	6833      	ldr	r3, [r6, #0]
 8001362:	f443 7380 	orr.w	r3, r3, #256	; 0x100
 8001366:	6033      	str	r3, [r6, #0]
 8001368:	f7ff fb3e 	bl	80009e8 <HAL_GetTick>
 800136c:	4680      	mov	r8, r0
 800136e:	6833      	ldr	r3, [r6, #0]
 8001370:	05da      	lsls	r2, r3, #23
 8001372:	d4dc      	bmi.n	800132e <HAL_RCC_OscConfig+0x1ca>
 8001374:	f7ff fb38 	bl	80009e8 <HAL_GetTick>
 8001378:	eba0 0008 	sub.w	r0, r0, r8
 800137c:	2864      	cmp	r0, #100	; 0x64
 800137e:	d9f6      	bls.n	800136e <HAL_RCC_OscConfig+0x20a>
 8001380:	e731      	b.n	80011e6 <HAL_RCC_OscConfig+0x82>
 8001382:	b9ab      	cbnz	r3, 80013b0 <HAL_RCC_OscConfig+0x24c>
 8001384:	6a23      	ldr	r3, [r4, #32]
 8001386:	f241 3888 	movw	r8, #5000	; 0x1388
 800138a:	f023 0301 	bic.w	r3, r3, #1
 800138e:	6223      	str	r3, [r4, #32]
 8001390:	6a23      	ldr	r3, [r4, #32]
 8001392:	f023 0304 	bic.w	r3, r3, #4
 8001396:	6223      	str	r3, [r4, #32]
 8001398:	f7ff fb26 	bl	80009e8 <HAL_GetTick>
 800139c:	4606      	mov	r6, r0
 800139e:	6a23      	ldr	r3, [r4, #32]
 80013a0:	0798      	lsls	r0, r3, #30
 80013a2:	d5d3      	bpl.n	800134c <HAL_RCC_OscConfig+0x1e8>
 80013a4:	f7ff fb20 	bl	80009e8 <HAL_GetTick>
 80013a8:	1b80      	subs	r0, r0, r6
 80013aa:	4540      	cmp	r0, r8
 80013ac:	d9f7      	bls.n	800139e <HAL_RCC_OscConfig+0x23a>
 80013ae:	e71a      	b.n	80011e6 <HAL_RCC_OscConfig+0x82>
 80013b0:	2b05      	cmp	r3, #5
 80013b2:	6a23      	ldr	r3, [r4, #32]
 80013b4:	d103      	bne.n	80013be <HAL_RCC_OscConfig+0x25a>
 80013b6:	f043 0304 	orr.w	r3, r3, #4
 80013ba:	6223      	str	r3, [r4, #32]
 80013bc:	e7ba      	b.n	8001334 <HAL_RCC_OscConfig+0x1d0>
 80013be:	f023 0301 	bic.w	r3, r3, #1
 80013c2:	6223      	str	r3, [r4, #32]
 80013c4:	6a23      	ldr	r3, [r4, #32]
 80013c6:	f023 0304 	bic.w	r3, r3, #4
 80013ca:	e7b6      	b.n	800133a <HAL_RCC_OscConfig+0x1d6>
 80013cc:	f7ff fb0c 	bl	80009e8 <HAL_GetTick>
 80013d0:	1b80      	subs	r0, r0, r6
 80013d2:	4540      	cmp	r0, r8
 80013d4:	d9b7      	bls.n	8001346 <HAL_RCC_OscConfig+0x1e2>
 80013d6:	e706      	b.n	80011e6 <HAL_RCC_OscConfig+0x82>
 80013d8:	40021000 	.word	0x40021000
 80013dc:	42420000 	.word	0x42420000
 80013e0:	20000000 	.word	0x20000000
 80013e4:	40007000 	.word	0x40007000
 80013e8:	4c2a      	ldr	r4, [pc, #168]	; (8001494 <HAL_RCC_OscConfig+0x330>)
 80013ea:	6863      	ldr	r3, [r4, #4]
 80013ec:	f003 030c 	and.w	r3, r3, #12
 80013f0:	2b08      	cmp	r3, #8
 80013f2:	d03e      	beq.n	8001472 <HAL_RCC_OscConfig+0x30e>
 80013f4:	2200      	movs	r2, #0
 80013f6:	4b28      	ldr	r3, [pc, #160]	; (8001498 <HAL_RCC_OscConfig+0x334>)
 80013f8:	2802      	cmp	r0, #2
 80013fa:	661a      	str	r2, [r3, #96]	; 0x60
 80013fc:	d12c      	bne.n	8001458 <HAL_RCC_OscConfig+0x2f4>
 80013fe:	f7ff faf3 	bl	80009e8 <HAL_GetTick>
 8001402:	4606      	mov	r6, r0
 8001404:	6823      	ldr	r3, [r4, #0]
 8001406:	0199      	lsls	r1, r3, #6
 8001408:	d420      	bmi.n	800144c <HAL_RCC_OscConfig+0x2e8>
 800140a:	6a2b      	ldr	r3, [r5, #32]
 800140c:	f5b3 3f80 	cmp.w	r3, #65536	; 0x10000
 8001410:	d105      	bne.n	800141e <HAL_RCC_OscConfig+0x2ba>
 8001412:	6ae2      	ldr	r2, [r4, #44]	; 0x2c
 8001414:	68a9      	ldr	r1, [r5, #8]
 8001416:	f022 020f 	bic.w	r2, r2, #15
 800141a:	430a      	orrs	r2, r1
 800141c:	62e2      	str	r2, [r4, #44]	; 0x2c
 800141e:	6a69      	ldr	r1, [r5, #36]	; 0x24
 8001420:	6862      	ldr	r2, [r4, #4]
 8001422:	430b      	orrs	r3, r1
 8001424:	f422 1274 	bic.w	r2, r2, #3997696	; 0x3d0000
 8001428:	4313      	orrs	r3, r2
 800142a:	2201      	movs	r2, #1
 800142c:	6063      	str	r3, [r4, #4]
 800142e:	4b1a      	ldr	r3, [pc, #104]	; (8001498 <HAL_RCC_OscConfig+0x334>)
 8001430:	661a      	str	r2, [r3, #96]	; 0x60
 8001432:	f7ff fad9 	bl	80009e8 <HAL_GetTick>
 8001436:	4605      	mov	r5, r0
 8001438:	6823      	ldr	r3, [r4, #0]
 800143a:	019a      	lsls	r2, r3, #6
 800143c:	f53f aea8 	bmi.w	8001190 <HAL_RCC_OscConfig+0x2c>
 8001440:	f7ff fad2 	bl	80009e8 <HAL_GetTick>
 8001444:	1b40      	subs	r0, r0, r5
 8001446:	2802      	cmp	r0, #2
 8001448:	d9f6      	bls.n	8001438 <HAL_RCC_OscConfig+0x2d4>
 800144a:	e6cc      	b.n	80011e6 <HAL_RCC_OscConfig+0x82>
 800144c:	f7ff facc 	bl	80009e8 <HAL_GetTick>
 8001450:	1b80      	subs	r0, r0, r6
 8001452:	2802      	cmp	r0, #2
 8001454:	d9d6      	bls.n	8001404 <HAL_RCC_OscConfig+0x2a0>
 8001456:	e6c6      	b.n	80011e6 <HAL_RCC_OscConfig+0x82>
 8001458:	f7ff fac6 	bl	80009e8 <HAL_GetTick>
 800145c:	4605      	mov	r5, r0
 800145e:	6823      	ldr	r3, [r4, #0]
 8001460:	019b      	lsls	r3, r3, #6
 8001462:	f57f ae95 	bpl.w	8001190 <HAL_RCC_OscConfig+0x2c>
 8001466:	f7ff fabf 	bl	80009e8 <HAL_GetTick>
 800146a:	1b40      	subs	r0, r0, r5
 800146c:	2802      	cmp	r0, #2
 800146e:	d9f6      	bls.n	800145e <HAL_RCC_OscConfig+0x2fa>
 8001470:	e6b9      	b.n	80011e6 <HAL_RCC_OscConfig+0x82>
 8001472:	2801      	cmp	r0, #1
 8001474:	f43f aeb8 	beq.w	80011e8 <HAL_RCC_OscConfig+0x84>
 8001478:	6863      	ldr	r3, [r4, #4]
 800147a:	6a2a      	ldr	r2, [r5, #32]
 800147c:	f403 3180 	and.w	r1, r3, #65536	; 0x10000
 8001480:	4291      	cmp	r1, r2
 8001482:	f47f ae9b 	bne.w	80011bc <HAL_RCC_OscConfig+0x58>
 8001486:	6a6a      	ldr	r2, [r5, #36]	; 0x24
 8001488:	f403 1370 	and.w	r3, r3, #3932160	; 0x3c0000
 800148c:	4293      	cmp	r3, r2
 800148e:	f43f ae7f 	beq.w	8001190 <HAL_RCC_OscConfig+0x2c>
 8001492:	e693      	b.n	80011bc <HAL_RCC_OscConfig+0x58>
 8001494:	40021000 	.word	0x40021000
 8001498:	42420000 	.word	0x42420000

0800149c <HAL_RCC_GetSysClockFreq>:
 800149c:	b530      	push	{r4, r5, lr}
 800149e:	b089      	sub	sp, #36	; 0x24
 80014a0:	466c      	mov	r4, sp
 80014a2:	4b1b      	ldr	r3, [pc, #108]	; (8001510 <HAL_RCC_GetSysClockFreq+0x74>)
 80014a4:	f103 0510 	add.w	r5, r3, #16
 80014a8:	4622      	mov	r2, r4
 80014aa:	6818      	ldr	r0, [r3, #0]
 80014ac:	6859      	ldr	r1, [r3, #4]
 80014ae:	3308      	adds	r3, #8
 80014b0:	c203      	stmia	r2!, {r0, r1}
 80014b2:	42ab      	cmp	r3, r5
 80014b4:	4614      	mov	r4, r2
 80014b6:	d1f7      	bne.n	80014a8 <HAL_RCC_GetSysClockFreq+0xc>
 80014b8:	4b16      	ldr	r3, [pc, #88]	; (8001514 <HAL_RCC_GetSysClockFreq+0x78>)
 80014ba:	ac04      	add	r4, sp, #16
 80014bc:	f103 0510 	add.w	r5, r3, #16
 80014c0:	4622      	mov	r2, r4
 80014c2:	6818      	ldr	r0, [r3, #0]
 80014c4:	6859      	ldr	r1, [r3, #4]
 80014c6:	3308      	adds	r3, #8
 80014c8:	c203      	stmia	r2!, {r0, r1}
 80014ca:	42ab      	cmp	r3, r5
 80014cc:	4614      	mov	r4, r2
 80014ce:	d1f7      	bne.n	80014c0 <HAL_RCC_GetSysClockFreq+0x24>
 80014d0:	4911      	ldr	r1, [pc, #68]	; (8001518 <HAL_RCC_GetSysClockFreq+0x7c>)
 80014d2:	684b      	ldr	r3, [r1, #4]
 80014d4:	f003 020c 	and.w	r2, r3, #12
 80014d8:	2a08      	cmp	r2, #8
 80014da:	d117      	bne.n	800150c <HAL_RCC_GetSysClockFreq+0x70>
 80014dc:	f3c3 4283 	ubfx	r2, r3, #18, #4
 80014e0:	3220      	adds	r2, #32
 80014e2:	446a      	add	r2, sp
 80014e4:	03db      	lsls	r3, r3, #15
 80014e6:	f812 0c20 	ldrb.w	r0, [r2, #-32]
 80014ea:	d50c      	bpl.n	8001506 <HAL_RCC_GetSysClockFreq+0x6a>
 80014ec:	6acb      	ldr	r3, [r1, #44]	; 0x2c
 80014ee:	4a0b      	ldr	r2, [pc, #44]	; (800151c <HAL_RCC_GetSysClockFreq+0x80>)
 80014f0:	f003 030f 	and.w	r3, r3, #15
 80014f4:	4350      	muls	r0, r2
 80014f6:	3320      	adds	r3, #32
 80014f8:	446b      	add	r3, sp
 80014fa:	f813 3c10 	ldrb.w	r3, [r3, #-16]
 80014fe:	fbb0 f0f3 	udiv	r0, r0, r3
 8001502:	b009      	add	sp, #36	; 0x24
 8001504:	bd30      	pop	{r4, r5, pc}
 8001506:	4b06      	ldr	r3, [pc, #24]	; (8001520 <HAL_RCC_GetSysClockFreq+0x84>)
 8001508:	4358      	muls	r0, r3
 800150a:	e7fa      	b.n	8001502 <HAL_RCC_GetSysClockFreq+0x66>
 800150c:	4803      	ldr	r0, [pc, #12]	; (800151c <HAL_RCC_GetSysClockFreq+0x80>)
 800150e:	e7f8      	b.n	8001502 <HAL_RCC_GetSysClockFreq+0x66>
 8001510:	080037a4 	.word	0x080037a4
 8001514:	080037b5 	.word	0x080037b5
 8001518:	40021000 	.word	0x40021000
 800151c:	007a1200 	.word	0x007a1200
 8001520:	003d0900 	.word	0x003d0900

08001524 <HAL_RCC_ClockConfig>:
 8001524:	b5f8      	push	{r3, r4, r5, r6, r7, lr}
 8001526:	4605      	mov	r5, r0
 8001528:	b908      	cbnz	r0, 800152e <HAL_RCC_ClockConfig+0xa>
 800152a:	2001      	movs	r0, #1
 800152c:	bdf8      	pop	{r3, r4, r5, r6, r7, pc}
 800152e:	6802      	ldr	r2, [r0, #0]
 8001530:	4c30      	ldr	r4, [pc, #192]	; (80015f4 <HAL_RCC_ClockConfig+0xd0>)
 8001532:	f012 0f02 	tst.w	r2, #2
 8001536:	d011      	beq.n	800155c <HAL_RCC_ClockConfig+0x38>
 8001538:	0757      	lsls	r7, r2, #29
 800153a:	bf42      	ittt	mi
 800153c:	6863      	ldrmi	r3, [r4, #4]
 800153e:	f443 63e0 	orrmi.w	r3, r3, #1792	; 0x700
 8001542:	6063      	strmi	r3, [r4, #4]
 8001544:	0716      	lsls	r6, r2, #28
 8001546:	bf42      	ittt	mi
 8001548:	6863      	ldrmi	r3, [r4, #4]
 800154a:	f443 5360 	orrmi.w	r3, r3, #14336	; 0x3800
 800154e:	6063      	strmi	r3, [r4, #4]
 8001550:	6863      	ldr	r3, [r4, #4]
 8001552:	6881      	ldr	r1, [r0, #8]
 8001554:	f023 03f0 	bic.w	r3, r3, #240	; 0xf0
 8001558:	430b      	orrs	r3, r1
 800155a:	6063      	str	r3, [r4, #4]
 800155c:	07d0      	lsls	r0, r2, #31
 800155e:	d41b      	bmi.n	8001598 <HAL_RCC_ClockConfig+0x74>
 8001560:	682a      	ldr	r2, [r5, #0]
 8001562:	0751      	lsls	r1, r2, #29
 8001564:	d43f      	bmi.n	80015e6 <HAL_RCC_ClockConfig+0xc2>
 8001566:	0713      	lsls	r3, r2, #28
 8001568:	d506      	bpl.n	8001578 <HAL_RCC_ClockConfig+0x54>
 800156a:	6863      	ldr	r3, [r4, #4]
 800156c:	692a      	ldr	r2, [r5, #16]
 800156e:	f423 5360 	bic.w	r3, r3, #14336	; 0x3800
 8001572:	ea43 03c2 	orr.w	r3, r3, r2, lsl #3
 8001576:	6063      	str	r3, [r4, #4]
 8001578:	f7ff ff90 	bl	800149c <HAL_RCC_GetSysClockFreq>
 800157c:	6863      	ldr	r3, [r4, #4]
 800157e:	4a1e      	ldr	r2, [pc, #120]	; (80015f8 <HAL_RCC_ClockConfig+0xd4>)
 8001580:	f3c3 1303 	ubfx	r3, r3, #4, #4
 8001584:	5cd3      	ldrb	r3, [r2, r3]
 8001586:	40d8      	lsrs	r0, r3
 8001588:	4b1c      	ldr	r3, [pc, #112]	; (80015fc <HAL_RCC_ClockConfig+0xd8>)
 800158a:	6018      	str	r0, [r3, #0]
 800158c:	4b1c      	ldr	r3, [pc, #112]	; (8001600 <HAL_RCC_ClockConfig+0xdc>)
 800158e:	6818      	ldr	r0, [r3, #0]
 8001590:	f7ff f8d2 	bl	8000738 <HAL_InitTick>
 8001594:	2000      	movs	r0, #0
 8001596:	e7c9      	b.n	800152c <HAL_RCC_ClockConfig+0x8>
 8001598:	686a      	ldr	r2, [r5, #4]
 800159a:	6823      	ldr	r3, [r4, #0]
 800159c:	2a01      	cmp	r2, #1
 800159e:	d11a      	bne.n	80015d6 <HAL_RCC_ClockConfig+0xb2>
 80015a0:	f413 3f00 	tst.w	r3, #131072	; 0x20000
 80015a4:	d0c1      	beq.n	800152a <HAL_RCC_ClockConfig+0x6>
 80015a6:	6863      	ldr	r3, [r4, #4]
 80015a8:	f241 3788 	movw	r7, #5000	; 0x1388
 80015ac:	f023 0303 	bic.w	r3, r3, #3
 80015b0:	4313      	orrs	r3, r2
 80015b2:	6063      	str	r3, [r4, #4]
 80015b4:	f7ff fa18 	bl	80009e8 <HAL_GetTick>
 80015b8:	4606      	mov	r6, r0
 80015ba:	6863      	ldr	r3, [r4, #4]
 80015bc:	686a      	ldr	r2, [r5, #4]
 80015be:	f003 030c 	and.w	r3, r3, #12
 80015c2:	ebb3 0f82 	cmp.w	r3, r2, lsl #2
 80015c6:	d0cb      	beq.n	8001560 <HAL_RCC_ClockConfig+0x3c>
 80015c8:	f7ff fa0e 	bl	80009e8 <HAL_GetTick>
 80015cc:	1b80      	subs	r0, r0, r6
 80015ce:	42b8      	cmp	r0, r7
 80015d0:	d9f3      	bls.n	80015ba <HAL_RCC_ClockConfig+0x96>
 80015d2:	2003      	movs	r0, #3
 80015d4:	e7aa      	b.n	800152c <HAL_RCC_ClockConfig+0x8>
 80015d6:	2a02      	cmp	r2, #2
 80015d8:	d102      	bne.n	80015e0 <HAL_RCC_ClockConfig+0xbc>
 80015da:	f013 7f00 	tst.w	r3, #33554432	; 0x2000000
 80015de:	e7e1      	b.n	80015a4 <HAL_RCC_ClockConfig+0x80>
 80015e0:	f013 0f02 	tst.w	r3, #2
 80015e4:	e7de      	b.n	80015a4 <HAL_RCC_ClockConfig+0x80>
 80015e6:	6863      	ldr	r3, [r4, #4]
 80015e8:	68e9      	ldr	r1, [r5, #12]
 80015ea:	f423 63e0 	bic.w	r3, r3, #1792	; 0x700
 80015ee:	430b      	orrs	r3, r1
 80015f0:	6063      	str	r3, [r4, #4]
 80015f2:	e7b8      	b.n	8001566 <HAL_RCC_ClockConfig+0x42>
 80015f4:	40021000 	.word	0x40021000
 80015f8:	0800378c 	.word	0x0800378c
 80015fc:	20000000 	.word	0x20000000
 8001600:	20000008 	.word	0x20000008

08001604 <HAL_RCC_GetPCLK1Freq>:
 8001604:	4b04      	ldr	r3, [pc, #16]	; (8001618 <HAL_RCC_GetPCLK1Freq+0x14>)
 8001606:	4a05      	ldr	r2, [pc, #20]	; (800161c <HAL_RCC_GetPCLK1Freq+0x18>)
 8001608:	685b      	ldr	r3, [r3, #4]
 800160a:	f3c3 2302 	ubfx	r3, r3, #8, #3
 800160e:	5cd3      	ldrb	r3, [r2, r3]
 8001610:	4a03      	ldr	r2, [pc, #12]	; (8001620 <HAL_RCC_GetPCLK1Freq+0x1c>)
 8001612:	6810      	ldr	r0, [r2, #0]
 8001614:	40d8      	lsrs	r0, r3
 8001616:	4770      	bx	lr
 8001618:	40021000 	.word	0x40021000
 800161c:	0800379c 	.word	0x0800379c
 8001620:	20000000 	.word	0x20000000

08001624 <HAL_RCC_GetPCLK2Freq>:
 8001624:	4b04      	ldr	r3, [pc, #16]	; (8001638 <HAL_RCC_GetPCLK2Freq+0x14>)
 8001626:	4a05      	ldr	r2, [pc, #20]	; (800163c <HAL_RCC_GetPCLK2Freq+0x18>)
 8001628:	685b      	ldr	r3, [r3, #4]
 800162a:	f3c3 23c2 	ubfx	r3, r3, #11, #3
 800162e:	5cd3      	ldrb	r3, [r2, r3]
 8001630:	4a03      	ldr	r2, [pc, #12]	; (8001640 <HAL_RCC_GetPCLK2Freq+0x1c>)
 8001632:	6810      	ldr	r0, [r2, #0]
 8001634:	40d8      	lsrs	r0, r3
 8001636:	4770      	bx	lr
 8001638:	40021000 	.word	0x40021000
 800163c:	0800379c 	.word	0x0800379c
 8001640:	20000000 	.word	0x20000000

08001644 <HAL_RCC_GetClockConfig>:
 8001644:	230f      	movs	r3, #15
 8001646:	6003      	str	r3, [r0, #0]
 8001648:	4b0a      	ldr	r3, [pc, #40]	; (8001674 <HAL_RCC_GetClockConfig+0x30>)
 800164a:	685a      	ldr	r2, [r3, #4]
 800164c:	f002 0203 	and.w	r2, r2, #3
 8001650:	6042      	str	r2, [r0, #4]
 8001652:	685a      	ldr	r2, [r3, #4]
 8001654:	f002 02f0 	and.w	r2, r2, #240	; 0xf0
 8001658:	6082      	str	r2, [r0, #8]
 800165a:	685a      	ldr	r2, [r3, #4]
 800165c:	f402 62e0 	and.w	r2, r2, #1792	; 0x700
 8001660:	60c2      	str	r2, [r0, #12]
 8001662:	685b      	ldr	r3, [r3, #4]
 8001664:	08db      	lsrs	r3, r3, #3
 8001666:	f403 63e0 	and.w	r3, r3, #1792	; 0x700
 800166a:	6103      	str	r3, [r0, #16]
 800166c:	2300      	movs	r3, #0
 800166e:	600b      	str	r3, [r1, #0]
 8001670:	4770      	bx	lr
 8001672:	bf00      	nop
 8001674:	40021000 	.word	0x40021000

08001678 <HAL_RCCEx_PeriphCLKConfig>:
 8001678:	6803      	ldr	r3, [r0, #0]
 800167a:	e92d 41f3 	stmdb	sp!, {r0, r1, r4, r5, r6, r7, r8, lr}
 800167e:	07df      	lsls	r7, r3, #31
 8001680:	4605      	mov	r5, r0
 8001682:	d520      	bpl.n	80016c6 <HAL_RCCEx_PeriphCLKConfig+0x4e>
 8001684:	4c31      	ldr	r4, [pc, #196]	; (800174c <HAL_RCCEx_PeriphCLKConfig+0xd4>)
 8001686:	69e3      	ldr	r3, [r4, #28]
 8001688:	00de      	lsls	r6, r3, #3
 800168a:	d429      	bmi.n	80016e0 <HAL_RCCEx_PeriphCLKConfig+0x68>
 800168c:	2601      	movs	r6, #1
 800168e:	69e3      	ldr	r3, [r4, #28]
 8001690:	f043 5380 	orr.w	r3, r3, #268435456	; 0x10000000
 8001694:	61e3      	str	r3, [r4, #28]
 8001696:	69e3      	ldr	r3, [r4, #28]
 8001698:	f003 5380 	and.w	r3, r3, #268435456	; 0x10000000
 800169c:	9301      	str	r3, [sp, #4]
 800169e:	9b01      	ldr	r3, [sp, #4]
 80016a0:	4f2b      	ldr	r7, [pc, #172]	; (8001750 <HAL_RCCEx_PeriphCLKConfig+0xd8>)
 80016a2:	683b      	ldr	r3, [r7, #0]
 80016a4:	05d8      	lsls	r0, r3, #23
 80016a6:	d51d      	bpl.n	80016e4 <HAL_RCCEx_PeriphCLKConfig+0x6c>
 80016a8:	6a23      	ldr	r3, [r4, #32]
 80016aa:	f413 7340 	ands.w	r3, r3, #768	; 0x300
 80016ae:	d12d      	bne.n	800170c <HAL_RCCEx_PeriphCLKConfig+0x94>
 80016b0:	6a23      	ldr	r3, [r4, #32]
 80016b2:	686a      	ldr	r2, [r5, #4]
 80016b4:	f423 7340 	bic.w	r3, r3, #768	; 0x300
 80016b8:	4313      	orrs	r3, r2
 80016ba:	6223      	str	r3, [r4, #32]
 80016bc:	b11e      	cbz	r6, 80016c6 <HAL_RCCEx_PeriphCLKConfig+0x4e>
 80016be:	69e3      	ldr	r3, [r4, #28]
 80016c0:	f023 5380 	bic.w	r3, r3, #268435456	; 0x10000000
 80016c4:	61e3      	str	r3, [r4, #28]
 80016c6:	682b      	ldr	r3, [r5, #0]
 80016c8:	f013 0002 	ands.w	r0, r3, #2
 80016cc:	d01b      	beq.n	8001706 <HAL_RCCEx_PeriphCLKConfig+0x8e>
 80016ce:	4a1f      	ldr	r2, [pc, #124]	; (800174c <HAL_RCCEx_PeriphCLKConfig+0xd4>)
 80016d0:	68a9      	ldr	r1, [r5, #8]
 80016d2:	6853      	ldr	r3, [r2, #4]
 80016d4:	2000      	movs	r0, #0
 80016d6:	f423 4340 	bic.w	r3, r3, #49152	; 0xc000
 80016da:	430b      	orrs	r3, r1
 80016dc:	6053      	str	r3, [r2, #4]
 80016de:	e012      	b.n	8001706 <HAL_RCCEx_PeriphCLKConfig+0x8e>
 80016e0:	2600      	movs	r6, #0
 80016e2:	e7dd      	b.n	80016a0 <HAL_RCCEx_PeriphCLKConfig+0x28>
 80016e4:	683b      	ldr	r3, [r7, #0]
 80016e6:	f443 7380 	orr.w	r3, r3, #256	; 0x100
 80016ea:	603b      	str	r3, [r7, #0]
 80016ec:	f7ff f97c 	bl	80009e8 <HAL_GetTick>
 80016f0:	4680      	mov	r8, r0
 80016f2:	683b      	ldr	r3, [r7, #0]
 80016f4:	05d9      	lsls	r1, r3, #23
 80016f6:	d4d7      	bmi.n	80016a8 <HAL_RCCEx_PeriphCLKConfig+0x30>
 80016f8:	f7ff f976 	bl	80009e8 <HAL_GetTick>
 80016fc:	eba0 0008 	sub.w	r0, r0, r8
 8001700:	2864      	cmp	r0, #100	; 0x64
 8001702:	d9f6      	bls.n	80016f2 <HAL_RCCEx_PeriphCLKConfig+0x7a>
 8001704:	2003      	movs	r0, #3
 8001706:	b002      	add	sp, #8
 8001708:	e8bd 81f0 	ldmia.w	sp!, {r4, r5, r6, r7, r8, pc}
 800170c:	686a      	ldr	r2, [r5, #4]
 800170e:	f402 7240 	and.w	r2, r2, #768	; 0x300
 8001712:	429a      	cmp	r2, r3
 8001714:	d0cc      	beq.n	80016b0 <HAL_RCCEx_PeriphCLKConfig+0x38>
 8001716:	2001      	movs	r0, #1
 8001718:	4a0e      	ldr	r2, [pc, #56]	; (8001754 <HAL_RCCEx_PeriphCLKConfig+0xdc>)
 800171a:	6a23      	ldr	r3, [r4, #32]
 800171c:	f8c2 0440 	str.w	r0, [r2, #1088]	; 0x440
 8001720:	2000      	movs	r0, #0
 8001722:	f423 7140 	bic.w	r1, r3, #768	; 0x300
 8001726:	f8c2 0440 	str.w	r0, [r2, #1088]	; 0x440
 800172a:	07da      	lsls	r2, r3, #31
 800172c:	6221      	str	r1, [r4, #32]
 800172e:	d5bf      	bpl.n	80016b0 <HAL_RCCEx_PeriphCLKConfig+0x38>
 8001730:	f7ff f95a 	bl	80009e8 <HAL_GetTick>
 8001734:	f241 3888 	movw	r8, #5000	; 0x1388
 8001738:	4607      	mov	r7, r0
 800173a:	6a23      	ldr	r3, [r4, #32]
 800173c:	079b      	lsls	r3, r3, #30
 800173e:	d4b7      	bmi.n	80016b0 <HAL_RCCEx_PeriphCLKConfig+0x38>
 8001740:	f7ff f952 	bl	80009e8 <HAL_GetTick>
 8001744:	1bc0      	subs	r0, r0, r7
 8001746:	4540      	cmp	r0, r8
 8001748:	d9f7      	bls.n	800173a <HAL_RCCEx_PeriphCLKConfig+0xc2>
 800174a:	e7db      	b.n	8001704 <HAL_RCCEx_PeriphCLKConfig+0x8c>
 800174c:	40021000 	.word	0x40021000
 8001750:	40007000 	.word	0x40007000
 8001754:	42420000 	.word	0x42420000

08001758 <HAL_TIM_Base_MspInit>:
 8001758:	4770      	bx	lr
	...

0800175c <HAL_TIM_Base_Start_IT>:
 800175c:	f890 303d 	ldrb.w	r3, [r0, #61]	; 0x3d
 8001760:	2b01      	cmp	r3, #1
 8001762:	d124      	bne.n	80017ae <HAL_TIM_Base_Start_IT+0x52>
 8001764:	2302      	movs	r3, #2
 8001766:	f880 303d 	strb.w	r3, [r0, #61]	; 0x3d
 800176a:	6803      	ldr	r3, [r0, #0]
 800176c:	68da      	ldr	r2, [r3, #12]
 800176e:	f042 0201 	orr.w	r2, r2, #1
 8001772:	60da      	str	r2, [r3, #12]
 8001774:	4a0f      	ldr	r2, [pc, #60]	; (80017b4 <HAL_TIM_Base_Start_IT+0x58>)
 8001776:	4293      	cmp	r3, r2
 8001778:	d00e      	beq.n	8001798 <HAL_TIM_Base_Start_IT+0x3c>
 800177a:	f1b3 4f80 	cmp.w	r3, #1073741824	; 0x40000000
 800177e:	d00b      	beq.n	8001798 <HAL_TIM_Base_Start_IT+0x3c>
 8001780:	f5a2 3294 	sub.w	r2, r2, #75776	; 0x12800
 8001784:	4293      	cmp	r3, r2
 8001786:	d007      	beq.n	8001798 <HAL_TIM_Base_Start_IT+0x3c>
 8001788:	f502 6280 	add.w	r2, r2, #1024	; 0x400
 800178c:	4293      	cmp	r3, r2
 800178e:	d003      	beq.n	8001798 <HAL_TIM_Base_Start_IT+0x3c>
 8001790:	f502 329c 	add.w	r2, r2, #79872	; 0x13800
 8001794:	4293      	cmp	r3, r2
 8001796:	d104      	bne.n	80017a2 <HAL_TIM_Base_Start_IT+0x46>
 8001798:	689a      	ldr	r2, [r3, #8]
 800179a:	f002 0207 	and.w	r2, r2, #7
 800179e:	2a06      	cmp	r2, #6
 80017a0:	d003      	beq.n	80017aa <HAL_TIM_Base_Start_IT+0x4e>
 80017a2:	681a      	ldr	r2, [r3, #0]
 80017a4:	f042 0201 	orr.w	r2, r2, #1
 80017a8:	601a      	str	r2, [r3, #0]
 80017aa:	2000      	movs	r0, #0
 80017ac:	4770      	bx	lr
 80017ae:	2001      	movs	r0, #1
 80017b0:	4770      	bx	lr
 80017b2:	bf00      	nop
 80017b4:	40012c00 	.word	0x40012c00

080017b8 <HAL_TIM_OC_DelayElapsedCallback>:
 80017b8:	4770      	bx	lr

080017ba <HAL_TIM_IC_CaptureCallback>:
 80017ba:	4770      	bx	lr

080017bc <HAL_TIM_PWM_PulseFinishedCallback>:
 80017bc:	4770      	bx	lr

080017be <HAL_TIM_TriggerCallback>:
 80017be:	4770      	bx	lr

080017c0 <HAL_TIM_IRQHandler>:
 80017c0:	6803      	ldr	r3, [r0, #0]
 80017c2:	b510      	push	{r4, lr}
 80017c4:	691a      	ldr	r2, [r3, #16]
 80017c6:	4604      	mov	r4, r0
 80017c8:	0791      	lsls	r1, r2, #30
 80017ca:	d50e      	bpl.n	80017ea <HAL_TIM_IRQHandler+0x2a>
 80017cc:	68da      	ldr	r2, [r3, #12]
 80017ce:	0792      	lsls	r2, r2, #30
 80017d0:	d50b      	bpl.n	80017ea <HAL_TIM_IRQHandler+0x2a>
 80017d2:	f06f 0202 	mvn.w	r2, #2
 80017d6:	611a      	str	r2, [r3, #16]
 80017d8:	2201      	movs	r2, #1
 80017da:	7702      	strb	r2, [r0, #28]
 80017dc:	699b      	ldr	r3, [r3, #24]
 80017de:	079b      	lsls	r3, r3, #30
 80017e0:	d077      	beq.n	80018d2 <HAL_TIM_IRQHandler+0x112>
 80017e2:	f7ff ffea 	bl	80017ba <HAL_TIM_IC_CaptureCallback>
 80017e6:	2300      	movs	r3, #0
 80017e8:	7723      	strb	r3, [r4, #28]
 80017ea:	6823      	ldr	r3, [r4, #0]
 80017ec:	691a      	ldr	r2, [r3, #16]
 80017ee:	0750      	lsls	r0, r2, #29
 80017f0:	d510      	bpl.n	8001814 <HAL_TIM_IRQHandler+0x54>
 80017f2:	68da      	ldr	r2, [r3, #12]
 80017f4:	0751      	lsls	r1, r2, #29
 80017f6:	d50d      	bpl.n	8001814 <HAL_TIM_IRQHandler+0x54>
 80017f8:	f06f 0204 	mvn.w	r2, #4
 80017fc:	611a      	str	r2, [r3, #16]
 80017fe:	2202      	movs	r2, #2
 8001800:	7722      	strb	r2, [r4, #28]
 8001802:	699b      	ldr	r3, [r3, #24]
 8001804:	4620      	mov	r0, r4
 8001806:	f413 7f40 	tst.w	r3, #768	; 0x300
 800180a:	d068      	beq.n	80018de <HAL_TIM_IRQHandler+0x11e>
 800180c:	f7ff ffd5 	bl	80017ba <HAL_TIM_IC_CaptureCallback>
 8001810:	2300      	movs	r3, #0
 8001812:	7723      	strb	r3, [r4, #28]
 8001814:	6823      	ldr	r3, [r4, #0]
 8001816:	691a      	ldr	r2, [r3, #16]
 8001818:	0712      	lsls	r2, r2, #28
 800181a:	d50f      	bpl.n	800183c <HAL_TIM_IRQHandler+0x7c>
 800181c:	68da      	ldr	r2, [r3, #12]
 800181e:	0710      	lsls	r0, r2, #28
 8001820:	d50c      	bpl.n	800183c <HAL_TIM_IRQHandler+0x7c>
 8001822:	f06f 0208 	mvn.w	r2, #8
 8001826:	611a      	str	r2, [r3, #16]
 8001828:	2204      	movs	r2, #4
 800182a:	7722      	strb	r2, [r4, #28]
 800182c:	69db      	ldr	r3, [r3, #28]
 800182e:	4620      	mov	r0, r4
 8001830:	0799      	lsls	r1, r3, #30
 8001832:	d05a      	beq.n	80018ea <HAL_TIM_IRQHandler+0x12a>
 8001834:	f7ff ffc1 	bl	80017ba <HAL_TIM_IC_CaptureCallback>
 8001838:	2300      	movs	r3, #0
 800183a:	7723      	strb	r3, [r4, #28]
 800183c:	6823      	ldr	r3, [r4, #0]
 800183e:	691a      	ldr	r2, [r3, #16]
 8001840:	06d2      	lsls	r2, r2, #27
 8001842:	d510      	bpl.n	8001866 <HAL_TIM_IRQHandler+0xa6>
 8001844:	68da      	ldr	r2, [r3, #12]
 8001846:	06d0      	lsls	r0, r2, #27
 8001848:	d50d      	bpl.n	8001866 <HAL_TIM_IRQHandler+0xa6>
 800184a:	f06f 0210 	mvn.w	r2, #16
 800184e:	611a      	str	r2, [r3, #16]
 8001850:	2208      	movs	r2, #8
 8001852:	7722      	strb	r2, [r4, #28]
 8001854:	69db      	ldr	r3, [r3, #28]
 8001856:	4620      	mov	r0, r4
 8001858:	f413 7f40 	tst.w	r3, #768	; 0x300
 800185c:	d04b      	beq.n	80018f6 <HAL_TIM_IRQHandler+0x136>
 800185e:	f7ff ffac 	bl	80017ba <HAL_TIM_IC_CaptureCallback>
 8001862:	2300      	movs	r3, #0
 8001864:	7723      	strb	r3, [r4, #28]
 8001866:	6823      	ldr	r3, [r4, #0]
 8001868:	691a      	ldr	r2, [r3, #16]
 800186a:	07d1      	lsls	r1, r2, #31
 800186c:	d508      	bpl.n	8001880 <HAL_TIM_IRQHandler+0xc0>
 800186e:	68da      	ldr	r2, [r3, #12]
 8001870:	07d2      	lsls	r2, r2, #31
 8001872:	d505      	bpl.n	8001880 <HAL_TIM_IRQHandler+0xc0>
 8001874:	f06f 0201 	mvn.w	r2, #1
 8001878:	4620      	mov	r0, r4
 800187a:	611a      	str	r2, [r3, #16]
 800187c:	f7fe ff28 	bl	80006d0 <HAL_TIM_PeriodElapsedCallback>
 8001880:	6823      	ldr	r3, [r4, #0]
 8001882:	691a      	ldr	r2, [r3, #16]
 8001884:	0610      	lsls	r0, r2, #24
 8001886:	d508      	bpl.n	800189a <HAL_TIM_IRQHandler+0xda>
 8001888:	68da      	ldr	r2, [r3, #12]
 800188a:	0611      	lsls	r1, r2, #24
 800188c:	d505      	bpl.n	800189a <HAL_TIM_IRQHandler+0xda>
 800188e:	f06f 0280 	mvn.w	r2, #128	; 0x80
 8001892:	4620      	mov	r0, r4
 8001894:	611a      	str	r2, [r3, #16]
 8001896:	f000 f8b4 	bl	8001a02 <HAL_TIMEx_BreakCallback>
 800189a:	6823      	ldr	r3, [r4, #0]
 800189c:	691a      	ldr	r2, [r3, #16]
 800189e:	0652      	lsls	r2, r2, #25
 80018a0:	d508      	bpl.n	80018b4 <HAL_TIM_IRQHandler+0xf4>
 80018a2:	68da      	ldr	r2, [r3, #12]
 80018a4:	0650      	lsls	r0, r2, #25
 80018a6:	d505      	bpl.n	80018b4 <HAL_TIM_IRQHandler+0xf4>
 80018a8:	f06f 0240 	mvn.w	r2, #64	; 0x40
 80018ac:	4620      	mov	r0, r4
 80018ae:	611a      	str	r2, [r3, #16]
 80018b0:	f7ff ff85 	bl	80017be <HAL_TIM_TriggerCallback>
 80018b4:	6823      	ldr	r3, [r4, #0]
 80018b6:	691a      	ldr	r2, [r3, #16]
 80018b8:	0691      	lsls	r1, r2, #26
 80018ba:	d522      	bpl.n	8001902 <HAL_TIM_IRQHandler+0x142>
 80018bc:	68da      	ldr	r2, [r3, #12]
 80018be:	0692      	lsls	r2, r2, #26
 80018c0:	d51f      	bpl.n	8001902 <HAL_TIM_IRQHandler+0x142>
 80018c2:	f06f 0220 	mvn.w	r2, #32
 80018c6:	4620      	mov	r0, r4
 80018c8:	e8bd 4010 	ldmia.w	sp!, {r4, lr}
 80018cc:	611a      	str	r2, [r3, #16]
 80018ce:	f000 b897 	b.w	8001a00 <HAL_TIMEx_CommutCallback>
 80018d2:	f7ff ff71 	bl	80017b8 <HAL_TIM_OC_DelayElapsedCallback>
 80018d6:	4620      	mov	r0, r4
 80018d8:	f7ff ff70 	bl	80017bc <HAL_TIM_PWM_PulseFinishedCallback>
 80018dc:	e783      	b.n	80017e6 <HAL_TIM_IRQHandler+0x26>
 80018de:	f7ff ff6b 	bl	80017b8 <HAL_TIM_OC_DelayElapsedCallback>
 80018e2:	4620      	mov	r0, r4
 80018e4:	f7ff ff6a 	bl	80017bc <HAL_TIM_PWM_PulseFinishedCallback>
 80018e8:	e792      	b.n	8001810 <HAL_TIM_IRQHandler+0x50>
 80018ea:	f7ff ff65 	bl	80017b8 <HAL_TIM_OC_DelayElapsedCallback>
 80018ee:	4620      	mov	r0, r4
 80018f0:	f7ff ff64 	bl	80017bc <HAL_TIM_PWM_PulseFinishedCallback>
 80018f4:	e7a0      	b.n	8001838 <HAL_TIM_IRQHandler+0x78>
 80018f6:	f7ff ff5f 	bl	80017b8 <HAL_TIM_OC_DelayElapsedCallback>
 80018fa:	4620      	mov	r0, r4
 80018fc:	f7ff ff5e 	bl	80017bc <HAL_TIM_PWM_PulseFinishedCallback>
 8001900:	e7af      	b.n	8001862 <HAL_TIM_IRQHandler+0xa2>
 8001902:	bd10      	pop	{r4, pc}

08001904 <TIM_Base_SetConfig>:
 8001904:	4a26      	ldr	r2, [pc, #152]	; (80019a0 <TIM_Base_SetConfig+0x9c>)
 8001906:	6803      	ldr	r3, [r0, #0]
 8001908:	4290      	cmp	r0, r2
 800190a:	d00a      	beq.n	8001922 <TIM_Base_SetConfig+0x1e>
 800190c:	f1b0 4f80 	cmp.w	r0, #1073741824	; 0x40000000
 8001910:	d007      	beq.n	8001922 <TIM_Base_SetConfig+0x1e>
 8001912:	f5a2 3294 	sub.w	r2, r2, #75776	; 0x12800
 8001916:	4290      	cmp	r0, r2
 8001918:	d003      	beq.n	8001922 <TIM_Base_SetConfig+0x1e>
 800191a:	f502 6280 	add.w	r2, r2, #1024	; 0x400
 800191e:	4290      	cmp	r0, r2
 8001920:	d111      	bne.n	8001946 <TIM_Base_SetConfig+0x42>
 8001922:	684a      	ldr	r2, [r1, #4]
 8001924:	f023 0370 	bic.w	r3, r3, #112	; 0x70
 8001928:	4313      	orrs	r3, r2
 800192a:	4a1d      	ldr	r2, [pc, #116]	; (80019a0 <TIM_Base_SetConfig+0x9c>)
 800192c:	4290      	cmp	r0, r2
 800192e:	d015      	beq.n	800195c <TIM_Base_SetConfig+0x58>
 8001930:	f1b0 4f80 	cmp.w	r0, #1073741824	; 0x40000000
 8001934:	d012      	beq.n	800195c <TIM_Base_SetConfig+0x58>
 8001936:	f5a2 3294 	sub.w	r2, r2, #75776	; 0x12800
 800193a:	4290      	cmp	r0, r2
 800193c:	d00e      	beq.n	800195c <TIM_Base_SetConfig+0x58>
 800193e:	f502 6280 	add.w	r2, r2, #1024	; 0x400
 8001942:	4290      	cmp	r0, r2
 8001944:	d00a      	beq.n	800195c <TIM_Base_SetConfig+0x58>
 8001946:	4a17      	ldr	r2, [pc, #92]	; (80019a4 <TIM_Base_SetConfig+0xa0>)
 8001948:	4290      	cmp	r0, r2
 800194a:	d007      	beq.n	800195c <TIM_Base_SetConfig+0x58>
 800194c:	f502 6280 	add.w	r2, r2, #1024	; 0x400
 8001950:	4290      	cmp	r0, r2
 8001952:	d003      	beq.n	800195c <TIM_Base_SetConfig+0x58>
 8001954:	f502 6280 	add.w	r2, r2, #1024	; 0x400
 8001958:	4290      	cmp	r0, r2
 800195a:	d103      	bne.n	8001964 <TIM_Base_SetConfig+0x60>
 800195c:	68ca      	ldr	r2, [r1, #12]
 800195e:	f423 7340 	bic.w	r3, r3, #768	; 0x300
 8001962:	4313      	orrs	r3, r2
 8001964:	694a      	ldr	r2, [r1, #20]
 8001966:	f023 0380 	bic.w	r3, r3, #128	; 0x80
 800196a:	4313      	orrs	r3, r2
 800196c:	6003      	str	r3, [r0, #0]
 800196e:	688b      	ldr	r3, [r1, #8]
 8001970:	62c3      	str	r3, [r0, #44]	; 0x2c
 8001972:	680b      	ldr	r3, [r1, #0]
 8001974:	6283      	str	r3, [r0, #40]	; 0x28
 8001976:	4b0a      	ldr	r3, [pc, #40]	; (80019a0 <TIM_Base_SetConfig+0x9c>)
 8001978:	4298      	cmp	r0, r3
 800197a:	d00b      	beq.n	8001994 <TIM_Base_SetConfig+0x90>
 800197c:	f503 53a0 	add.w	r3, r3, #5120	; 0x1400
 8001980:	4298      	cmp	r0, r3
 8001982:	d007      	beq.n	8001994 <TIM_Base_SetConfig+0x90>
 8001984:	f503 6380 	add.w	r3, r3, #1024	; 0x400
 8001988:	4298      	cmp	r0, r3
 800198a:	d003      	beq.n	8001994 <TIM_Base_SetConfig+0x90>
 800198c:	f503 6380 	add.w	r3, r3, #1024	; 0x400
 8001990:	4298      	cmp	r0, r3
 8001992:	d101      	bne.n	8001998 <TIM_Base_SetConfig+0x94>
 8001994:	690b      	ldr	r3, [r1, #16]
 8001996:	6303      	str	r3, [r0, #48]	; 0x30
 8001998:	2301      	movs	r3, #1
 800199a:	6143      	str	r3, [r0, #20]
 800199c:	4770      	bx	lr
 800199e:	bf00      	nop
 80019a0:	40012c00 	.word	0x40012c00
 80019a4:	40014000 	.word	0x40014000

080019a8 <HAL_TIM_Base_Init>:
 80019a8:	b510      	push	{r4, lr}
 80019aa:	4604      	mov	r4, r0
 80019ac:	b330      	cbz	r0, 80019fc <HAL_TIM_Base_Init+0x54>
 80019ae:	f890 303d 	ldrb.w	r3, [r0, #61]	; 0x3d
 80019b2:	f003 02ff 	and.w	r2, r3, #255	; 0xff
 80019b6:	b91b      	cbnz	r3, 80019c0 <HAL_TIM_Base_Init+0x18>
 80019b8:	f880 203c 	strb.w	r2, [r0, #60]	; 0x3c
 80019bc:	f7ff fecc 	bl	8001758 <HAL_TIM_Base_MspInit>
 80019c0:	2302      	movs	r3, #2
 80019c2:	6820      	ldr	r0, [r4, #0]
 80019c4:	f884 303d 	strb.w	r3, [r4, #61]	; 0x3d
 80019c8:	1d21      	adds	r1, r4, #4
 80019ca:	f7ff ff9b 	bl	8001904 <TIM_Base_SetConfig>
 80019ce:	2301      	movs	r3, #1
 80019d0:	2000      	movs	r0, #0
 80019d2:	f884 3046 	strb.w	r3, [r4, #70]	; 0x46
 80019d6:	f884 303e 	strb.w	r3, [r4, #62]	; 0x3e
 80019da:	f884 303f 	strb.w	r3, [r4, #63]	; 0x3f
 80019de:	f884 3040 	strb.w	r3, [r4, #64]	; 0x40
 80019e2:	f884 3041 	strb.w	r3, [r4, #65]	; 0x41
 80019e6:	f884 3042 	strb.w	r3, [r4, #66]	; 0x42
 80019ea:	f884 3043 	strb.w	r3, [r4, #67]	; 0x43
 80019ee:	f884 3044 	strb.w	r3, [r4, #68]	; 0x44
 80019f2:	f884 3045 	strb.w	r3, [r4, #69]	; 0x45
 80019f6:	f884 303d 	strb.w	r3, [r4, #61]	; 0x3d
 80019fa:	bd10      	pop	{r4, pc}
 80019fc:	2001      	movs	r0, #1
 80019fe:	e7fc      	b.n	80019fa <HAL_TIM_Base_Init+0x52>

08001a00 <HAL_TIMEx_CommutCallback>:
 8001a00:	4770      	bx	lr

08001a02 <HAL_TIMEx_BreakCallback>:
 8001a02:	4770      	bx	lr

08001a04 <UART_SetConfig>:
 8001a04:	b510      	push	{r4, lr}
 8001a06:	4604      	mov	r4, r0
 8001a08:	6802      	ldr	r2, [r0, #0]
 8001a0a:	68c1      	ldr	r1, [r0, #12]
 8001a0c:	6913      	ldr	r3, [r2, #16]
 8001a0e:	f423 5340 	bic.w	r3, r3, #12288	; 0x3000
 8001a12:	430b      	orrs	r3, r1
 8001a14:	6113      	str	r3, [r2, #16]
 8001a16:	6883      	ldr	r3, [r0, #8]
 8001a18:	6900      	ldr	r0, [r0, #16]
 8001a1a:	68d1      	ldr	r1, [r2, #12]
 8001a1c:	4303      	orrs	r3, r0
 8001a1e:	6960      	ldr	r0, [r4, #20]
 8001a20:	f421 4116 	bic.w	r1, r1, #38400	; 0x9600
 8001a24:	4303      	orrs	r3, r0
 8001a26:	69e0      	ldr	r0, [r4, #28]
 8001a28:	f021 010c 	bic.w	r1, r1, #12
 8001a2c:	4303      	orrs	r3, r0
 8001a2e:	430b      	orrs	r3, r1
 8001a30:	60d3      	str	r3, [r2, #12]
 8001a32:	6953      	ldr	r3, [r2, #20]
 8001a34:	69a1      	ldr	r1, [r4, #24]
 8001a36:	f423 7340 	bic.w	r3, r3, #768	; 0x300
 8001a3a:	430b      	orrs	r3, r1
 8001a3c:	6153      	str	r3, [r2, #20]
 8001a3e:	4b1a      	ldr	r3, [pc, #104]	; (8001aa8 <UART_SetConfig+0xa4>)
 8001a40:	429a      	cmp	r2, r3
 8001a42:	d120      	bne.n	8001a86 <UART_SetConfig+0x82>
 8001a44:	f7ff fdee 	bl	8001624 <HAL_RCC_GetPCLK2Freq>
 8001a48:	2319      	movs	r3, #25
 8001a4a:	69e1      	ldr	r1, [r4, #28]
 8001a4c:	4343      	muls	r3, r0
 8001a4e:	e9d4 2000 	ldrd	r2, r0, [r4]
 8001a52:	f5b1 4f00 	cmp.w	r1, #32768	; 0x8000
 8001a56:	f04f 0164 	mov.w	r1, #100	; 0x64
 8001a5a:	d117      	bne.n	8001a8c <UART_SetConfig+0x88>
 8001a5c:	0040      	lsls	r0, r0, #1
 8001a5e:	fbb3 f0f0 	udiv	r0, r3, r0
 8001a62:	fbb0 f4f1 	udiv	r4, r0, r1
 8001a66:	fb01 0314 	mls	r3, r1, r4, r0
 8001a6a:	00db      	lsls	r3, r3, #3
 8001a6c:	3332      	adds	r3, #50	; 0x32
 8001a6e:	fbb3 f3f1 	udiv	r3, r3, r1
 8001a72:	f003 0107 	and.w	r1, r3, #7
 8001a76:	005b      	lsls	r3, r3, #1
 8001a78:	eb01 1104 	add.w	r1, r1, r4, lsl #4
 8001a7c:	f403 73f8 	and.w	r3, r3, #496	; 0x1f0
 8001a80:	440b      	add	r3, r1
 8001a82:	6093      	str	r3, [r2, #8]
 8001a84:	bd10      	pop	{r4, pc}
 8001a86:	f7ff fdbd 	bl	8001604 <HAL_RCC_GetPCLK1Freq>
 8001a8a:	e7dd      	b.n	8001a48 <UART_SetConfig+0x44>
 8001a8c:	0080      	lsls	r0, r0, #2
 8001a8e:	fbb3 f0f0 	udiv	r0, r3, r0
 8001a92:	fbb0 f4f1 	udiv	r4, r0, r1
 8001a96:	fb01 0314 	mls	r3, r1, r4, r0
 8001a9a:	011b      	lsls	r3, r3, #4
 8001a9c:	3332      	adds	r3, #50	; 0x32
 8001a9e:	fbb3 f3f1 	udiv	r3, r3, r1
 8001aa2:	eb03 1304 	add.w	r3, r3, r4, lsl #4
 8001aa6:	e7ec      	b.n	8001a82 <UART_SetConfig+0x7e>
 8001aa8:	40013800 	.word	0x40013800

08001aac <HAL_UART_Init>:
 8001aac:	b510      	push	{r4, lr}
 8001aae:	4604      	mov	r4, r0
 8001ab0:	b340      	cbz	r0, 8001b04 <HAL_UART_Init+0x58>
 8001ab2:	f890 303d 	ldrb.w	r3, [r0, #61]	; 0x3d
 8001ab6:	f003 02ff 	and.w	r2, r3, #255	; 0xff
 8001aba:	b91b      	cbnz	r3, 8001ac4 <HAL_UART_Init+0x18>
 8001abc:	f880 203c 	strb.w	r2, [r0, #60]	; 0x3c
 8001ac0:	f7fe fed0 	bl	8000864 <HAL_UART_MspInit>
 8001ac4:	2324      	movs	r3, #36	; 0x24
 8001ac6:	6822      	ldr	r2, [r4, #0]
 8001ac8:	f884 303d 	strb.w	r3, [r4, #61]	; 0x3d
 8001acc:	68d3      	ldr	r3, [r2, #12]
 8001ace:	4620      	mov	r0, r4
 8001ad0:	f423 5300 	bic.w	r3, r3, #8192	; 0x2000
 8001ad4:	60d3      	str	r3, [r2, #12]
 8001ad6:	f7ff ff95 	bl	8001a04 <UART_SetConfig>
 8001ada:	6823      	ldr	r3, [r4, #0]
 8001adc:	2000      	movs	r0, #0
 8001ade:	691a      	ldr	r2, [r3, #16]
 8001ae0:	f422 4290 	bic.w	r2, r2, #18432	; 0x4800
 8001ae4:	611a      	str	r2, [r3, #16]
 8001ae6:	695a      	ldr	r2, [r3, #20]
 8001ae8:	f022 022a 	bic.w	r2, r2, #42	; 0x2a
 8001aec:	615a      	str	r2, [r3, #20]
 8001aee:	68da      	ldr	r2, [r3, #12]
 8001af0:	f442 5200 	orr.w	r2, r2, #8192	; 0x2000
 8001af4:	60da      	str	r2, [r3, #12]
 8001af6:	2320      	movs	r3, #32
 8001af8:	6420      	str	r0, [r4, #64]	; 0x40
 8001afa:	f884 303d 	strb.w	r3, [r4, #61]	; 0x3d
 8001afe:	f884 303e 	strb.w	r3, [r4, #62]	; 0x3e
 8001b02:	bd10      	pop	{r4, pc}
 8001b04:	2001      	movs	r0, #1
 8001b06:	e7fc      	b.n	8001b02 <HAL_UART_Init+0x56>

08001b08 <TimerCallback>:
 8001b08:	b510      	push	{r4, lr}
 8001b0a:	f001 fdb1 	bl	8003670 <pvTimerGetTimerID>
 8001b0e:	b120      	cbz	r0, 8001b1a <TimerCallback+0x12>
 8001b10:	e9d0 3000 	ldrd	r3, r0, [r0]
 8001b14:	e8bd 4010 	ldmia.w	sp!, {r4, lr}
 8001b18:	4718      	bx	r3
 8001b1a:	bd10      	pop	{r4, pc}

08001b1c <osKernelInitialize>:
 8001b1c:	f3ef 8305 	mrs	r3, IPSR
 8001b20:	b113      	cbz	r3, 8001b28 <osKernelInitialize+0xc>
 8001b22:	f06f 0005 	mvn.w	r0, #5
 8001b26:	4770      	bx	lr
 8001b28:	f3ef 8310 	mrs	r3, PRIMASK
 8001b2c:	2b00      	cmp	r3, #0
 8001b2e:	d1f8      	bne.n	8001b22 <osKernelInitialize+0x6>
 8001b30:	4b07      	ldr	r3, [pc, #28]	; (8001b50 <osKernelInitialize+0x34>)
 8001b32:	6818      	ldr	r0, [r3, #0]
 8001b34:	2802      	cmp	r0, #2
 8001b36:	d106      	bne.n	8001b46 <osKernelInitialize+0x2a>
 8001b38:	f3ef 8311 	mrs	r3, BASEPRI
 8001b3c:	2b00      	cmp	r3, #0
 8001b3e:	d1f0      	bne.n	8001b22 <osKernelInitialize+0x6>
 8001b40:	f04f 30ff 	mov.w	r0, #4294967295
 8001b44:	4770      	bx	lr
 8001b46:	2800      	cmp	r0, #0
 8001b48:	d1fa      	bne.n	8001b40 <osKernelInitialize+0x24>
 8001b4a:	2201      	movs	r2, #1
 8001b4c:	601a      	str	r2, [r3, #0]
 8001b4e:	4770      	bx	lr
 8001b50:	20000428 	.word	0x20000428

08001b54 <osKernelStart>:
 8001b54:	b510      	push	{r4, lr}
 8001b56:	f3ef 8305 	mrs	r3, IPSR
 8001b5a:	b113      	cbz	r3, 8001b62 <osKernelStart+0xe>
 8001b5c:	f06f 0005 	mvn.w	r0, #5
 8001b60:	bd10      	pop	{r4, pc}
 8001b62:	f3ef 8410 	mrs	r4, PRIMASK
 8001b66:	2c00      	cmp	r4, #0
 8001b68:	d1f8      	bne.n	8001b5c <osKernelStart+0x8>
 8001b6a:	4b09      	ldr	r3, [pc, #36]	; (8001b90 <osKernelStart+0x3c>)
 8001b6c:	681a      	ldr	r2, [r3, #0]
 8001b6e:	2a02      	cmp	r2, #2
 8001b70:	d106      	bne.n	8001b80 <osKernelStart+0x2c>
 8001b72:	f3ef 8311 	mrs	r3, BASEPRI
 8001b76:	2b00      	cmp	r3, #0
 8001b78:	d1f0      	bne.n	8001b5c <osKernelStart+0x8>
 8001b7a:	f04f 30ff 	mov.w	r0, #4294967295
 8001b7e:	e7ef      	b.n	8001b60 <osKernelStart+0xc>
 8001b80:	2a01      	cmp	r2, #1
 8001b82:	d1fa      	bne.n	8001b7a <osKernelStart+0x26>
 8001b84:	2202      	movs	r2, #2
 8001b86:	601a      	str	r2, [r3, #0]
 8001b88:	f001 f85c 	bl	8002c44 <vTaskStartScheduler>
 8001b8c:	4620      	mov	r0, r4
 8001b8e:	e7e7      	b.n	8001b60 <osKernelStart+0xc>
 8001b90:	20000428 	.word	0x20000428

08001b94 <osThreadNew>:
 8001b94:	b5f0      	push	{r4, r5, r6, r7, lr}
 8001b96:	4614      	mov	r4, r2
 8001b98:	2200      	movs	r2, #0
 8001b9a:	b087      	sub	sp, #28
 8001b9c:	460b      	mov	r3, r1
 8001b9e:	9205      	str	r2, [sp, #20]
 8001ba0:	f3ef 8205 	mrs	r2, IPSR
 8001ba4:	bb52      	cbnz	r2, 8001bfc <osThreadNew+0x68>
 8001ba6:	f3ef 8210 	mrs	r2, PRIMASK
 8001baa:	bb3a      	cbnz	r2, 8001bfc <osThreadNew+0x68>
 8001bac:	4a26      	ldr	r2, [pc, #152]	; (8001c48 <osThreadNew+0xb4>)
 8001bae:	6812      	ldr	r2, [r2, #0]
 8001bb0:	2a02      	cmp	r2, #2
 8001bb2:	d102      	bne.n	8001bba <osThreadNew+0x26>
 8001bb4:	f3ef 8211 	mrs	r2, BASEPRI
 8001bb8:	bb02      	cbnz	r2, 8001bfc <osThreadNew+0x68>
 8001bba:	b1f8      	cbz	r0, 8001bfc <osThreadNew+0x68>
 8001bbc:	2200      	movs	r2, #0
 8001bbe:	f88d 2013 	strb.w	r2, [sp, #19]
 8001bc2:	2c00      	cmp	r4, #0
 8001bc4:	d030      	beq.n	8001c28 <osThreadNew+0x94>
 8001bc6:	6821      	ldr	r1, [r4, #0]
 8001bc8:	b909      	cbnz	r1, 8001bce <osThreadNew+0x3a>
 8001bca:	f10d 0113 	add.w	r1, sp, #19
 8001bce:	69a5      	ldr	r5, [r4, #24]
 8001bd0:	2d00      	cmp	r5, #0
 8001bd2:	bf08      	it	eq
 8001bd4:	2518      	moveq	r5, #24
 8001bd6:	1e6a      	subs	r2, r5, #1
 8001bd8:	2a37      	cmp	r2, #55	; 0x37
 8001bda:	46ac      	mov	ip, r5
 8001bdc:	d82a      	bhi.n	8001c34 <osThreadNew+0xa0>
 8001bde:	6862      	ldr	r2, [r4, #4]
 8001be0:	07d2      	lsls	r2, r2, #31
 8001be2:	d427      	bmi.n	8001c34 <osThreadNew+0xa0>
 8001be4:	6966      	ldr	r6, [r4, #20]
 8001be6:	b166      	cbz	r6, 8001c02 <osThreadNew+0x6e>
 8001be8:	08b2      	lsrs	r2, r6, #2
 8001bea:	e9d4 7e02 	ldrd	r7, lr, [r4, #8]
 8001bee:	b157      	cbz	r7, 8001c06 <osThreadNew+0x72>
 8001bf0:	f1be 0f5b 	cmp.w	lr, #91	; 0x5b
 8001bf4:	d902      	bls.n	8001bfc <osThreadNew+0x68>
 8001bf6:	6924      	ldr	r4, [r4, #16]
 8001bf8:	b104      	cbz	r4, 8001bfc <osThreadNew+0x68>
 8001bfa:	b9ee      	cbnz	r6, 8001c38 <osThreadNew+0xa4>
 8001bfc:	9805      	ldr	r0, [sp, #20]
 8001bfe:	b007      	add	sp, #28
 8001c00:	bdf0      	pop	{r4, r5, r6, r7, pc}
 8001c02:	2280      	movs	r2, #128	; 0x80
 8001c04:	e7f1      	b.n	8001bea <osThreadNew+0x56>
 8001c06:	f1be 0f00 	cmp.w	lr, #0
 8001c0a:	d1f7      	bne.n	8001bfc <osThreadNew+0x68>
 8001c0c:	6924      	ldr	r4, [r4, #16]
 8001c0e:	2c00      	cmp	r4, #0
 8001c10:	d1f4      	bne.n	8001bfc <osThreadNew+0x68>
 8001c12:	ac05      	add	r4, sp, #20
 8001c14:	e9cd c400 	strd	ip, r4, [sp]
 8001c18:	b292      	uxth	r2, r2
 8001c1a:	f000 ffe5 	bl	8002be8 <xTaskCreate>
 8001c1e:	2801      	cmp	r0, #1
 8001c20:	bf1c      	itt	ne
 8001c22:	2300      	movne	r3, #0
 8001c24:	9305      	strne	r3, [sp, #20]
 8001c26:	e7e9      	b.n	8001bfc <osThreadNew+0x68>
 8001c28:	f04f 0c18 	mov.w	ip, #24
 8001c2c:	2280      	movs	r2, #128	; 0x80
 8001c2e:	f10d 0113 	add.w	r1, sp, #19
 8001c32:	e7ee      	b.n	8001c12 <osThreadNew+0x7e>
 8001c34:	2000      	movs	r0, #0
 8001c36:	e7e2      	b.n	8001bfe <osThreadNew+0x6a>
 8001c38:	e9cd 4701 	strd	r4, r7, [sp, #4]
 8001c3c:	9500      	str	r5, [sp, #0]
 8001c3e:	f000 ff9c 	bl	8002b7a <xTaskCreateStatic>
 8001c42:	9005      	str	r0, [sp, #20]
 8001c44:	e7da      	b.n	8001bfc <osThreadNew+0x68>
 8001c46:	bf00      	nop
 8001c48:	20000428 	.word	0x20000428

08001c4c <osDelay>:
 8001c4c:	b508      	push	{r3, lr}
 8001c4e:	f3ef 8305 	mrs	r3, IPSR
 8001c52:	b113      	cbz	r3, 8001c5a <osDelay+0xe>
 8001c54:	f06f 0005 	mvn.w	r0, #5
 8001c58:	bd08      	pop	{r3, pc}
 8001c5a:	f3ef 8310 	mrs	r3, PRIMASK
 8001c5e:	2b00      	cmp	r3, #0
 8001c60:	d1f8      	bne.n	8001c54 <osDelay+0x8>
 8001c62:	4b07      	ldr	r3, [pc, #28]	; (8001c80 <osDelay+0x34>)
 8001c64:	681b      	ldr	r3, [r3, #0]
 8001c66:	2b02      	cmp	r3, #2
 8001c68:	d103      	bne.n	8001c72 <osDelay+0x26>
 8001c6a:	f3ef 8311 	mrs	r3, BASEPRI
 8001c6e:	2b00      	cmp	r3, #0
 8001c70:	d1f0      	bne.n	8001c54 <osDelay+0x8>
 8001c72:	2800      	cmp	r0, #0
 8001c74:	d0f0      	beq.n	8001c58 <osDelay+0xc>
 8001c76:	f001 f93d 	bl	8002ef4 <vTaskDelay>
 8001c7a:	2000      	movs	r0, #0
 8001c7c:	e7ec      	b.n	8001c58 <osDelay+0xc>
 8001c7e:	bf00      	nop
 8001c80:	20000428 	.word	0x20000428

08001c84 <osTimerNew>:
 8001c84:	b5f7      	push	{r0, r1, r2, r4, r5, r6, r7, lr}
 8001c86:	4606      	mov	r6, r0
 8001c88:	460d      	mov	r5, r1
 8001c8a:	4617      	mov	r7, r2
 8001c8c:	461c      	mov	r4, r3
 8001c8e:	f3ef 8305 	mrs	r3, IPSR
 8001c92:	b113      	cbz	r3, 8001c9a <osTimerNew+0x16>
 8001c94:	2000      	movs	r0, #0
 8001c96:	b003      	add	sp, #12
 8001c98:	bdf0      	pop	{r4, r5, r6, r7, pc}
 8001c9a:	f3ef 8310 	mrs	r3, PRIMASK
 8001c9e:	2b00      	cmp	r3, #0
 8001ca0:	d1f8      	bne.n	8001c94 <osTimerNew+0x10>
 8001ca2:	4b16      	ldr	r3, [pc, #88]	; (8001cfc <osTimerNew+0x78>)
 8001ca4:	681b      	ldr	r3, [r3, #0]
 8001ca6:	2b02      	cmp	r3, #2
 8001ca8:	d103      	bne.n	8001cb2 <osTimerNew+0x2e>
 8001caa:	f3ef 8311 	mrs	r3, BASEPRI
 8001cae:	2b00      	cmp	r3, #0
 8001cb0:	d1f0      	bne.n	8001c94 <osTimerNew+0x10>
 8001cb2:	2e00      	cmp	r6, #0
 8001cb4:	d0ee      	beq.n	8001c94 <osTimerNew+0x10>
 8001cb6:	2008      	movs	r0, #8
 8001cb8:	f000 f8a4 	bl	8001e04 <pvPortMalloc>
 8001cbc:	4603      	mov	r3, r0
 8001cbe:	2800      	cmp	r0, #0
 8001cc0:	d0e8      	beq.n	8001c94 <osTimerNew+0x10>
 8001cc2:	1e2a      	subs	r2, r5, #0
 8001cc4:	bf18      	it	ne
 8001cc6:	2201      	movne	r2, #1
 8001cc8:	e9c0 6700 	strd	r6, r7, [r0]
 8001ccc:	b17c      	cbz	r4, 8001cee <osTimerNew+0x6a>
 8001cce:	6820      	ldr	r0, [r4, #0]
 8001cd0:	e9d4 1402 	ldrd	r1, r4, [r4, #8]
 8001cd4:	b141      	cbz	r1, 8001ce8 <osTimerNew+0x64>
 8001cd6:	2c2f      	cmp	r4, #47	; 0x2f
 8001cd8:	d9dc      	bls.n	8001c94 <osTimerNew+0x10>
 8001cda:	9101      	str	r1, [sp, #4]
 8001cdc:	4908      	ldr	r1, [pc, #32]	; (8001d00 <osTimerNew+0x7c>)
 8001cde:	9100      	str	r1, [sp, #0]
 8001ce0:	2101      	movs	r1, #1
 8001ce2:	f001 fb2c 	bl	800333e <xTimerCreateStatic>
 8001ce6:	e7d6      	b.n	8001c96 <osTimerNew+0x12>
 8001ce8:	2c00      	cmp	r4, #0
 8001cea:	d1d3      	bne.n	8001c94 <osTimerNew+0x10>
 8001cec:	4604      	mov	r4, r0
 8001cee:	4904      	ldr	r1, [pc, #16]	; (8001d00 <osTimerNew+0x7c>)
 8001cf0:	4620      	mov	r0, r4
 8001cf2:	9100      	str	r1, [sp, #0]
 8001cf4:	2101      	movs	r1, #1
 8001cf6:	f001 fafb 	bl	80032f0 <xTimerCreate>
 8001cfa:	e7cc      	b.n	8001c96 <osTimerNew+0x12>
 8001cfc:	20000428 	.word	0x20000428
 8001d00:	08001b09 	.word	0x08001b09

08001d04 <osMutexNew>:
 8001d04:	b570      	push	{r4, r5, r6, lr}
 8001d06:	4605      	mov	r5, r0
 8001d08:	f3ef 8305 	mrs	r3, IPSR
 8001d0c:	b113      	cbz	r3, 8001d14 <osMutexNew+0x10>
 8001d0e:	2400      	movs	r4, #0
 8001d10:	4620      	mov	r0, r4
 8001d12:	bd70      	pop	{r4, r5, r6, pc}
 8001d14:	f3ef 8310 	mrs	r3, PRIMASK
 8001d18:	2b00      	cmp	r3, #0
 8001d1a:	d1f8      	bne.n	8001d0e <osMutexNew+0xa>
 8001d1c:	4a1a      	ldr	r2, [pc, #104]	; (8001d88 <osMutexNew+0x84>)
 8001d1e:	6812      	ldr	r2, [r2, #0]
 8001d20:	2a02      	cmp	r2, #2
 8001d22:	d103      	bne.n	8001d2c <osMutexNew+0x28>
 8001d24:	f3ef 8211 	mrs	r2, BASEPRI
 8001d28:	2a00      	cmp	r2, #0
 8001d2a:	d1f0      	bne.n	8001d0e <osMutexNew+0xa>
 8001d2c:	b115      	cbz	r5, 8001d34 <osMutexNew+0x30>
 8001d2e:	686b      	ldr	r3, [r5, #4]
 8001d30:	071a      	lsls	r2, r3, #28
 8001d32:	d4ec      	bmi.n	8001d0e <osMutexNew+0xa>
 8001d34:	f003 0601 	and.w	r6, r3, #1
 8001d38:	b17d      	cbz	r5, 8001d5a <osMutexNew+0x56>
 8001d3a:	e9d5 1302 	ldrd	r1, r3, [r5, #8]
 8001d3e:	b151      	cbz	r1, 8001d56 <osMutexNew+0x52>
 8001d40:	2b4f      	cmp	r3, #79	; 0x4f
 8001d42:	d9e4      	bls.n	8001d0e <osMutexNew+0xa>
 8001d44:	b1de      	cbz	r6, 8001d7e <osMutexNew+0x7a>
 8001d46:	2004      	movs	r0, #4
 8001d48:	f000 fc91 	bl	800266e <xQueueCreateMutexStatic>
 8001d4c:	4604      	mov	r4, r0
 8001d4e:	2800      	cmp	r0, #0
 8001d50:	d0dd      	beq.n	8001d0e <osMutexNew+0xa>
 8001d52:	682d      	ldr	r5, [r5, #0]
 8001d54:	e00a      	b.n	8001d6c <osMutexNew+0x68>
 8001d56:	2b00      	cmp	r3, #0
 8001d58:	d1d9      	bne.n	8001d0e <osMutexNew+0xa>
 8001d5a:	b196      	cbz	r6, 8001d82 <osMutexNew+0x7e>
 8001d5c:	2004      	movs	r0, #4
 8001d5e:	f000 fc9b 	bl	8002698 <xQueueCreateMutex>
 8001d62:	4604      	mov	r4, r0
 8001d64:	2800      	cmp	r0, #0
 8001d66:	d0d2      	beq.n	8001d0e <osMutexNew+0xa>
 8001d68:	2d00      	cmp	r5, #0
 8001d6a:	d1f2      	bne.n	8001d52 <osMutexNew+0x4e>
 8001d6c:	4629      	mov	r1, r5
 8001d6e:	4620      	mov	r0, r4
 8001d70:	f000 fdb0 	bl	80028d4 <vQueueAddToRegistry>
 8001d74:	2e00      	cmp	r6, #0
 8001d76:	d0cb      	beq.n	8001d10 <osMutexNew+0xc>
 8001d78:	f044 0401 	orr.w	r4, r4, #1
 8001d7c:	e7c8      	b.n	8001d10 <osMutexNew+0xc>
 8001d7e:	2001      	movs	r0, #1
 8001d80:	e7e2      	b.n	8001d48 <osMutexNew+0x44>
 8001d82:	2001      	movs	r0, #1
 8001d84:	e7eb      	b.n	8001d5e <osMutexNew+0x5a>
 8001d86:	bf00      	nop
 8001d88:	20000428 	.word	0x20000428

08001d8c <vApplicationGetIdleTaskMemory>:
 8001d8c:	4b03      	ldr	r3, [pc, #12]	; (8001d9c <vApplicationGetIdleTaskMemory+0x10>)
 8001d8e:	6003      	str	r3, [r0, #0]
 8001d90:	4b03      	ldr	r3, [pc, #12]	; (8001da0 <vApplicationGetIdleTaskMemory+0x14>)
 8001d92:	600b      	str	r3, [r1, #0]
 8001d94:	2380      	movs	r3, #128	; 0x80
 8001d96:	6013      	str	r3, [r2, #0]
 8001d98:	4770      	bx	lr
 8001d9a:	bf00      	nop
 8001d9c:	200003cc 	.word	0x200003cc
 8001da0:	200001cc 	.word	0x200001cc

08001da4 <vApplicationGetTimerTaskMemory>:
 8001da4:	4b03      	ldr	r3, [pc, #12]	; (8001db4 <vApplicationGetTimerTaskMemory+0x10>)
 8001da6:	6003      	str	r3, [r0, #0]
 8001da8:	4b03      	ldr	r3, [pc, #12]	; (8001db8 <vApplicationGetTimerTaskMemory+0x14>)
 8001daa:	600b      	str	r3, [r1, #0]
 8001dac:	f44f 7380 	mov.w	r3, #256	; 0x100
 8001db0:	6013      	str	r3, [r2, #0]
 8001db2:	4770      	bx	lr
 8001db4:	2000082c 	.word	0x2000082c
 8001db8:	2000042c 	.word	0x2000042c

08001dbc <prvInsertBlockIntoFreeList>:
 8001dbc:	b510      	push	{r4, lr}
 8001dbe:	4b0f      	ldr	r3, [pc, #60]	; (8001dfc <prvInsertBlockIntoFreeList+0x40>)
 8001dc0:	461a      	mov	r2, r3
 8001dc2:	681b      	ldr	r3, [r3, #0]
 8001dc4:	4283      	cmp	r3, r0
 8001dc6:	d3fb      	bcc.n	8001dc0 <prvInsertBlockIntoFreeList+0x4>
 8001dc8:	6854      	ldr	r4, [r2, #4]
 8001dca:	1911      	adds	r1, r2, r4
 8001dcc:	4288      	cmp	r0, r1
 8001dce:	bf01      	itttt	eq
 8001dd0:	6841      	ldreq	r1, [r0, #4]
 8001dd2:	4610      	moveq	r0, r2
 8001dd4:	1909      	addeq	r1, r1, r4
 8001dd6:	6051      	streq	r1, [r2, #4]
 8001dd8:	6844      	ldr	r4, [r0, #4]
 8001dda:	1901      	adds	r1, r0, r4
 8001ddc:	428b      	cmp	r3, r1
 8001dde:	d107      	bne.n	8001df0 <prvInsertBlockIntoFreeList+0x34>
 8001de0:	4907      	ldr	r1, [pc, #28]	; (8001e00 <prvInsertBlockIntoFreeList+0x44>)
 8001de2:	6809      	ldr	r1, [r1, #0]
 8001de4:	428b      	cmp	r3, r1
 8001de6:	bf1f      	itttt	ne
 8001de8:	6859      	ldrne	r1, [r3, #4]
 8001dea:	681b      	ldrne	r3, [r3, #0]
 8001dec:	1909      	addne	r1, r1, r4
 8001dee:	6041      	strne	r1, [r0, #4]
 8001df0:	4290      	cmp	r0, r2
 8001df2:	6003      	str	r3, [r0, #0]
 8001df4:	bf18      	it	ne
 8001df6:	6010      	strne	r0, [r2, #0]
 8001df8:	bd10      	pop	{r4, pc}
 8001dfa:	bf00      	nop
 8001dfc:	20001098 	.word	0x20001098
 8001e00:	20000888 	.word	0x20000888

08001e04 <pvPortMalloc>:
 8001e04:	e92d 41f0 	stmdb	sp!, {r4, r5, r6, r7, r8, lr}
 8001e08:	4604      	mov	r4, r0
 8001e0a:	f000 ff61 	bl	8002cd0 <vTaskSuspendAll>
 8001e0e:	483f      	ldr	r0, [pc, #252]	; (8001f0c <pvPortMalloc+0x108>)
 8001e10:	4d3f      	ldr	r5, [pc, #252]	; (8001f10 <pvPortMalloc+0x10c>)
 8001e12:	6803      	ldr	r3, [r0, #0]
 8001e14:	bb0b      	cbnz	r3, 8001e5a <pvPortMalloc+0x56>
 8001e16:	493f      	ldr	r1, [pc, #252]	; (8001f14 <pvPortMalloc+0x110>)
 8001e18:	074e      	lsls	r6, r1, #29
 8001e1a:	bf1d      	ittte	ne
 8001e1c:	1dcb      	addne	r3, r1, #7
 8001e1e:	f023 0307 	bicne.w	r3, r3, #7
 8001e22:	f501 6200 	addne.w	r2, r1, #2048	; 0x800
 8001e26:	f44f 6200 	moveq.w	r2, #2048	; 0x800
 8001e2a:	bf1c      	itt	ne
 8001e2c:	4619      	movne	r1, r3
 8001e2e:	1ad2      	subne	r2, r2, r3
 8001e30:	2300      	movs	r3, #0
 8001e32:	440a      	add	r2, r1
 8001e34:	4e38      	ldr	r6, [pc, #224]	; (8001f18 <pvPortMalloc+0x114>)
 8001e36:	3a08      	subs	r2, #8
 8001e38:	f022 0207 	bic.w	r2, r2, #7
 8001e3c:	6073      	str	r3, [r6, #4]
 8001e3e:	6031      	str	r1, [r6, #0]
 8001e40:	e9c2 3300 	strd	r3, r3, [r2]
 8001e44:	1a53      	subs	r3, r2, r1
 8001e46:	e9c1 2300 	strd	r2, r3, [r1]
 8001e4a:	6002      	str	r2, [r0, #0]
 8001e4c:	4a33      	ldr	r2, [pc, #204]	; (8001f1c <pvPortMalloc+0x118>)
 8001e4e:	6013      	str	r3, [r2, #0]
 8001e50:	4a33      	ldr	r2, [pc, #204]	; (8001f20 <pvPortMalloc+0x11c>)
 8001e52:	6013      	str	r3, [r2, #0]
 8001e54:	f04f 4300 	mov.w	r3, #2147483648	; 0x80000000
 8001e58:	602b      	str	r3, [r5, #0]
 8001e5a:	682f      	ldr	r7, [r5, #0]
 8001e5c:	4227      	tst	r7, r4
 8001e5e:	d150      	bne.n	8001f02 <pvPortMalloc+0xfe>
 8001e60:	2c00      	cmp	r4, #0
 8001e62:	d041      	beq.n	8001ee8 <pvPortMalloc+0xe4>
 8001e64:	f104 0308 	add.w	r3, r4, #8
 8001e68:	0761      	lsls	r1, r4, #29
 8001e6a:	bf1c      	itt	ne
 8001e6c:	f023 0307 	bicne.w	r3, r3, #7
 8001e70:	3308      	addne	r3, #8
 8001e72:	2b00      	cmp	r3, #0
 8001e74:	d045      	beq.n	8001f02 <pvPortMalloc+0xfe>
 8001e76:	4c2a      	ldr	r4, [pc, #168]	; (8001f20 <pvPortMalloc+0x11c>)
 8001e78:	6826      	ldr	r6, [r4, #0]
 8001e7a:	429e      	cmp	r6, r3
 8001e7c:	d341      	bcc.n	8001f02 <pvPortMalloc+0xfe>
 8001e7e:	4a26      	ldr	r2, [pc, #152]	; (8001f18 <pvPortMalloc+0x114>)
 8001e80:	6815      	ldr	r5, [r2, #0]
 8001e82:	6869      	ldr	r1, [r5, #4]
 8001e84:	4299      	cmp	r1, r3
 8001e86:	d204      	bcs.n	8001e92 <pvPortMalloc+0x8e>
 8001e88:	f8d5 c000 	ldr.w	ip, [r5]
 8001e8c:	f1bc 0f00 	cmp.w	ip, #0
 8001e90:	d115      	bne.n	8001ebe <pvPortMalloc+0xba>
 8001e92:	6800      	ldr	r0, [r0, #0]
 8001e94:	42a8      	cmp	r0, r5
 8001e96:	d034      	beq.n	8001f02 <pvPortMalloc+0xfe>
 8001e98:	6828      	ldr	r0, [r5, #0]
 8001e9a:	1ac9      	subs	r1, r1, r3
 8001e9c:	2910      	cmp	r1, #16
 8001e9e:	f8d2 8000 	ldr.w	r8, [r2]
 8001ea2:	6010      	str	r0, [r2, #0]
 8001ea4:	d912      	bls.n	8001ecc <pvPortMalloc+0xc8>
 8001ea6:	18e8      	adds	r0, r5, r3
 8001ea8:	0742      	lsls	r2, r0, #29
 8001eaa:	d00b      	beq.n	8001ec4 <pvPortMalloc+0xc0>
 8001eac:	f04f 0350 	mov.w	r3, #80	; 0x50
 8001eb0:	f383 8811 	msr	BASEPRI, r3
 8001eb4:	f3bf 8f6f 	isb	sy
 8001eb8:	f3bf 8f4f 	dsb	sy
 8001ebc:	e7fe      	b.n	8001ebc <pvPortMalloc+0xb8>
 8001ebe:	462a      	mov	r2, r5
 8001ec0:	4665      	mov	r5, ip
 8001ec2:	e7de      	b.n	8001e82 <pvPortMalloc+0x7e>
 8001ec4:	6041      	str	r1, [r0, #4]
 8001ec6:	606b      	str	r3, [r5, #4]
 8001ec8:	f7ff ff78 	bl	8001dbc <prvInsertBlockIntoFreeList>
 8001ecc:	686b      	ldr	r3, [r5, #4]
 8001ece:	4913      	ldr	r1, [pc, #76]	; (8001f1c <pvPortMalloc+0x118>)
 8001ed0:	1af6      	subs	r6, r6, r3
 8001ed2:	431f      	orrs	r7, r3
 8001ed4:	2300      	movs	r3, #0
 8001ed6:	6808      	ldr	r0, [r1, #0]
 8001ed8:	6026      	str	r6, [r4, #0]
 8001eda:	4286      	cmp	r6, r0
 8001edc:	bf38      	it	cc
 8001ede:	600e      	strcc	r6, [r1, #0]
 8001ee0:	f108 0408 	add.w	r4, r8, #8
 8001ee4:	606f      	str	r7, [r5, #4]
 8001ee6:	602b      	str	r3, [r5, #0]
 8001ee8:	f000 ff90 	bl	8002e0c <xTaskResumeAll>
 8001eec:	0763      	lsls	r3, r4, #29
 8001eee:	d00a      	beq.n	8001f06 <pvPortMalloc+0x102>
 8001ef0:	f04f 0350 	mov.w	r3, #80	; 0x50
 8001ef4:	f383 8811 	msr	BASEPRI, r3
 8001ef8:	f3bf 8f6f 	isb	sy
 8001efc:	f3bf 8f4f 	dsb	sy
 8001f00:	e7fe      	b.n	8001f00 <pvPortMalloc+0xfc>
 8001f02:	2400      	movs	r4, #0
 8001f04:	e7f0      	b.n	8001ee8 <pvPortMalloc+0xe4>
 8001f06:	4620      	mov	r0, r4
 8001f08:	e8bd 81f0 	ldmia.w	sp!, {r4, r5, r6, r7, r8, pc}
 8001f0c:	20000888 	.word	0x20000888
 8001f10:	2000108c 	.word	0x2000108c
 8001f14:	2000088c 	.word	0x2000088c
 8001f18:	20001098 	.word	0x20001098
 8001f1c:	20001094 	.word	0x20001094
 8001f20:	20001090 	.word	0x20001090

08001f24 <vPortFree>:
 8001f24:	b510      	push	{r4, lr}
 8001f26:	4604      	mov	r4, r0
 8001f28:	b370      	cbz	r0, 8001f88 <vPortFree+0x64>
 8001f2a:	4a18      	ldr	r2, [pc, #96]	; (8001f8c <vPortFree+0x68>)
 8001f2c:	f850 3c04 	ldr.w	r3, [r0, #-4]
 8001f30:	6812      	ldr	r2, [r2, #0]
 8001f32:	4213      	tst	r3, r2
 8001f34:	d108      	bne.n	8001f48 <vPortFree+0x24>
 8001f36:	f04f 0350 	mov.w	r3, #80	; 0x50
 8001f3a:	f383 8811 	msr	BASEPRI, r3
 8001f3e:	f3bf 8f6f 	isb	sy
 8001f42:	f3bf 8f4f 	dsb	sy
 8001f46:	e7fe      	b.n	8001f46 <vPortFree+0x22>
 8001f48:	f850 1c08 	ldr.w	r1, [r0, #-8]
 8001f4c:	b141      	cbz	r1, 8001f60 <vPortFree+0x3c>
 8001f4e:	f04f 0350 	mov.w	r3, #80	; 0x50
 8001f52:	f383 8811 	msr	BASEPRI, r3
 8001f56:	f3bf 8f6f 	isb	sy
 8001f5a:	f3bf 8f4f 	dsb	sy
 8001f5e:	e7fe      	b.n	8001f5e <vPortFree+0x3a>
 8001f60:	ea23 0302 	bic.w	r3, r3, r2
 8001f64:	f840 3c04 	str.w	r3, [r0, #-4]
 8001f68:	f000 feb2 	bl	8002cd0 <vTaskSuspendAll>
 8001f6c:	4a08      	ldr	r2, [pc, #32]	; (8001f90 <vPortFree+0x6c>)
 8001f6e:	f854 3c04 	ldr.w	r3, [r4, #-4]
 8001f72:	6811      	ldr	r1, [r2, #0]
 8001f74:	f1a4 0008 	sub.w	r0, r4, #8
 8001f78:	440b      	add	r3, r1
 8001f7a:	6013      	str	r3, [r2, #0]
 8001f7c:	f7ff ff1e 	bl	8001dbc <prvInsertBlockIntoFreeList>
 8001f80:	e8bd 4010 	ldmia.w	sp!, {r4, lr}
 8001f84:	f000 bf42 	b.w	8002e0c <xTaskResumeAll>
 8001f88:	bd10      	pop	{r4, pc}
 8001f8a:	bf00      	nop
 8001f8c:	2000108c 	.word	0x2000108c
 8001f90:	20001090 	.word	0x20001090

08001f94 <vListInitialise>:
 8001f94:	f04f 32ff 	mov.w	r2, #4294967295
 8001f98:	f100 0308 	add.w	r3, r0, #8
 8001f9c:	e9c0 2302 	strd	r2, r3, [r0, #8]
 8001fa0:	6043      	str	r3, [r0, #4]
 8001fa2:	6103      	str	r3, [r0, #16]
 8001fa4:	2300      	movs	r3, #0
 8001fa6:	6003      	str	r3, [r0, #0]
 8001fa8:	4770      	bx	lr

08001faa <vListInitialiseItem>:
 8001faa:	2300      	movs	r3, #0
 8001fac:	6103      	str	r3, [r0, #16]
 8001fae:	4770      	bx	lr

08001fb0 <vListInsertEnd>:
 8001fb0:	6843      	ldr	r3, [r0, #4]
 8001fb2:	689a      	ldr	r2, [r3, #8]
 8001fb4:	604b      	str	r3, [r1, #4]
 8001fb6:	608a      	str	r2, [r1, #8]
 8001fb8:	689a      	ldr	r2, [r3, #8]
 8001fba:	6051      	str	r1, [r2, #4]
 8001fbc:	6099      	str	r1, [r3, #8]
 8001fbe:	6803      	ldr	r3, [r0, #0]
 8001fc0:	6108      	str	r0, [r1, #16]
 8001fc2:	3301      	adds	r3, #1
 8001fc4:	6003      	str	r3, [r0, #0]
 8001fc6:	4770      	bx	lr

08001fc8 <vListInsert>:
 8001fc8:	b530      	push	{r4, r5, lr}
 8001fca:	680c      	ldr	r4, [r1, #0]
 8001fcc:	1c63      	adds	r3, r4, #1
 8001fce:	d10a      	bne.n	8001fe6 <vListInsert+0x1e>
 8001fd0:	6903      	ldr	r3, [r0, #16]
 8001fd2:	685a      	ldr	r2, [r3, #4]
 8001fd4:	604a      	str	r2, [r1, #4]
 8001fd6:	6091      	str	r1, [r2, #8]
 8001fd8:	608b      	str	r3, [r1, #8]
 8001fda:	6059      	str	r1, [r3, #4]
 8001fdc:	6803      	ldr	r3, [r0, #0]
 8001fde:	6108      	str	r0, [r1, #16]
 8001fe0:	3301      	adds	r3, #1
 8001fe2:	6003      	str	r3, [r0, #0]
 8001fe4:	bd30      	pop	{r4, r5, pc}
 8001fe6:	f100 0208 	add.w	r2, r0, #8
 8001fea:	4613      	mov	r3, r2
 8001fec:	6852      	ldr	r2, [r2, #4]
 8001fee:	6815      	ldr	r5, [r2, #0]
 8001ff0:	42a5      	cmp	r5, r4
 8001ff2:	d9fa      	bls.n	8001fea <vListInsert+0x22>
 8001ff4:	e7ed      	b.n	8001fd2 <vListInsert+0xa>

08001ff6 <uxListRemove>:
 8001ff6:	6903      	ldr	r3, [r0, #16]
 8001ff8:	e9d0 1201 	ldrd	r1, r2, [r0, #4]
 8001ffc:	608a      	str	r2, [r1, #8]
 8001ffe:	6051      	str	r1, [r2, #4]
 8002000:	6859      	ldr	r1, [r3, #4]
 8002002:	4281      	cmp	r1, r0
 8002004:	bf08      	it	eq
 8002006:	605a      	streq	r2, [r3, #4]
 8002008:	2200      	movs	r2, #0
 800200a:	6102      	str	r2, [r0, #16]
 800200c:	681a      	ldr	r2, [r3, #0]
 800200e:	3a01      	subs	r2, #1
 8002010:	601a      	str	r2, [r3, #0]
 8002012:	6818      	ldr	r0, [r3, #0]
 8002014:	4770      	bx	lr
	...

08002018 <prvPortStartFirstTask>:
 8002018:	4806      	ldr	r0, [pc, #24]	; (8002034 <prvPortStartFirstTask+0x1c>)
 800201a:	6800      	ldr	r0, [r0, #0]
 800201c:	6800      	ldr	r0, [r0, #0]
 800201e:	f380 8808 	msr	MSP, r0
 8002022:	b662      	cpsie	i
 8002024:	b661      	cpsie	f
 8002026:	f3bf 8f4f 	dsb	sy
 800202a:	f3bf 8f6f 	isb	sy
 800202e:	df00      	svc	0
 8002030:	bf00      	nop
 8002032:	0000      	.short	0x0000
 8002034:	e000ed08 	.word	0xe000ed08

08002038 <prvTaskExitError>:
 8002038:	2300      	movs	r3, #0
 800203a:	b082      	sub	sp, #8
 800203c:	9301      	str	r3, [sp, #4]
 800203e:	4b0d      	ldr	r3, [pc, #52]	; (8002074 <prvTaskExitError+0x3c>)
 8002040:	681b      	ldr	r3, [r3, #0]
 8002042:	3301      	adds	r3, #1
 8002044:	d008      	beq.n	8002058 <prvTaskExitError+0x20>
 8002046:	f04f 0350 	mov.w	r3, #80	; 0x50
 800204a:	f383 8811 	msr	BASEPRI, r3
 800204e:	f3bf 8f6f 	isb	sy
 8002052:	f3bf 8f4f 	dsb	sy
 8002056:	e7fe      	b.n	8002056 <prvTaskExitError+0x1e>
 8002058:	f04f 0350 	mov.w	r3, #80	; 0x50
 800205c:	f383 8811 	msr	BASEPRI, r3
 8002060:	f3bf 8f6f 	isb	sy
 8002064:	f3bf 8f4f 	dsb	sy
 8002068:	9b01      	ldr	r3, [sp, #4]
 800206a:	2b00      	cmp	r3, #0
 800206c:	d0fc      	beq.n	8002068 <prvTaskExitError+0x30>
 800206e:	b002      	add	sp, #8
 8002070:	4770      	bx	lr
 8002072:	bf00      	nop
 8002074:	2000000c 	.word	0x2000000c

08002078 <pxPortInitialiseStack>:
 8002078:	f04f 7380 	mov.w	r3, #16777216	; 0x1000000
 800207c:	f840 3c04 	str.w	r3, [r0, #-4]
 8002080:	4b05      	ldr	r3, [pc, #20]	; (8002098 <pxPortInitialiseStack+0x20>)
 8002082:	f021 0101 	bic.w	r1, r1, #1
 8002086:	f840 1c08 	str.w	r1, [r0, #-8]
 800208a:	f840 3c0c 	str.w	r3, [r0, #-12]
 800208e:	f840 2c20 	str.w	r2, [r0, #-32]
 8002092:	3840      	subs	r0, #64	; 0x40
 8002094:	4770      	bx	lr
 8002096:	bf00      	nop
 8002098:	08002039 	.word	0x08002039
 800209c:	00000000 	.word	0x00000000

080020a0 <SVC_Handler>:
 80020a0:	4b07      	ldr	r3, [pc, #28]	; (80020c0 <pxCurrentTCBConst2>)
 80020a2:	6819      	ldr	r1, [r3, #0]
 80020a4:	6808      	ldr	r0, [r1, #0]
 80020a6:	e8b0 0ff0 	ldmia.w	r0!, {r4, r5, r6, r7, r8, r9, sl, fp}
 80020aa:	f380 8809 	msr	PSP, r0
 80020ae:	f3bf 8f6f 	isb	sy
 80020b2:	f04f 0000 	mov.w	r0, #0
 80020b6:	f380 8811 	msr	BASEPRI, r0
 80020ba:	f04e 0e0d 	orr.w	lr, lr, #13
 80020be:	4770      	bx	lr

080020c0 <pxCurrentTCBConst2>:
 80020c0:	200010e8 	.word	0x200010e8

080020c4 <vPortEnterCritical>:
 80020c4:	f04f 0350 	mov.w	r3, #80	; 0x50
 80020c8:	f383 8811 	msr	BASEPRI, r3
 80020cc:	f3bf 8f6f 	isb	sy
 80020d0:	f3bf 8f4f 	dsb	sy
 80020d4:	4a0a      	ldr	r2, [pc, #40]	; (8002100 <vPortEnterCritical+0x3c>)
 80020d6:	6813      	ldr	r3, [r2, #0]
 80020d8:	3301      	adds	r3, #1
 80020da:	2b01      	cmp	r3, #1
 80020dc:	6013      	str	r3, [r2, #0]
 80020de:	d10e      	bne.n	80020fe <vPortEnterCritical+0x3a>
 80020e0:	f04f 23e0 	mov.w	r3, #3758153728	; 0xe000e000
 80020e4:	f8d3 3d04 	ldr.w	r3, [r3, #3332]	; 0xd04
 80020e8:	b2db      	uxtb	r3, r3
 80020ea:	b143      	cbz	r3, 80020fe <vPortEnterCritical+0x3a>
 80020ec:	f04f 0350 	mov.w	r3, #80	; 0x50
 80020f0:	f383 8811 	msr	BASEPRI, r3
 80020f4:	f3bf 8f6f 	isb	sy
 80020f8:	f3bf 8f4f 	dsb	sy
 80020fc:	e7fe      	b.n	80020fc <vPortEnterCritical+0x38>
 80020fe:	4770      	bx	lr
 8002100:	2000000c 	.word	0x2000000c

08002104 <vPortExitCritical>:
 8002104:	4a08      	ldr	r2, [pc, #32]	; (8002128 <vPortExitCritical+0x24>)
 8002106:	6813      	ldr	r3, [r2, #0]
 8002108:	b943      	cbnz	r3, 800211c <vPortExitCritical+0x18>
 800210a:	f04f 0350 	mov.w	r3, #80	; 0x50
 800210e:	f383 8811 	msr	BASEPRI, r3
 8002112:	f3bf 8f6f 	isb	sy
 8002116:	f3bf 8f4f 	dsb	sy
 800211a:	e7fe      	b.n	800211a <vPortExitCritical+0x16>
 800211c:	3b01      	subs	r3, #1
 800211e:	6013      	str	r3, [r2, #0]
 8002120:	b90b      	cbnz	r3, 8002126 <vPortExitCritical+0x22>
 8002122:	f383 8811 	msr	BASEPRI, r3
 8002126:	4770      	bx	lr
 8002128:	2000000c 	.word	0x2000000c
 800212c:	00000000 	.word	0x00000000

08002130 <PendSV_Handler>:
 8002130:	f3ef 8009 	mrs	r0, PSP
 8002134:	f3bf 8f6f 	isb	sy
 8002138:	4b0d      	ldr	r3, [pc, #52]	; (8002170 <pxCurrentTCBConst>)
 800213a:	681a      	ldr	r2, [r3, #0]
 800213c:	e920 0ff0 	stmdb	r0!, {r4, r5, r6, r7, r8, r9, sl, fp}
 8002140:	6010      	str	r0, [r2, #0]
 8002142:	e92d 4008 	stmdb	sp!, {r3, lr}
 8002146:	f04f 0050 	mov.w	r0, #80	; 0x50
 800214a:	f380 8811 	msr	BASEPRI, r0
 800214e:	f000 fef5 	bl	8002f3c <vTaskSwitchContext>
 8002152:	f04f 0000 	mov.w	r0, #0
 8002156:	f380 8811 	msr	BASEPRI, r0
 800215a:	e8bd 4008 	ldmia.w	sp!, {r3, lr}
 800215e:	6819      	ldr	r1, [r3, #0]
 8002160:	6808      	ldr	r0, [r1, #0]
 8002162:	e8b0 0ff0 	ldmia.w	r0!, {r4, r5, r6, r7, r8, r9, sl, fp}
 8002166:	f380 8809 	msr	PSP, r0
 800216a:	f3bf 8f6f 	isb	sy
 800216e:	4770      	bx	lr

08002170 <pxCurrentTCBConst>:
 8002170:	200010e8 	.word	0x200010e8

08002174 <SysTick_Handler>:
 8002174:	b508      	push	{r3, lr}
 8002176:	f04f 0350 	mov.w	r3, #80	; 0x50
 800217a:	f383 8811 	msr	BASEPRI, r3
 800217e:	f3bf 8f6f 	isb	sy
 8002182:	f3bf 8f4f 	dsb	sy
 8002186:	f000 fdb1 	bl	8002cec <xTaskIncrementTick>
 800218a:	b128      	cbz	r0, 8002198 <SysTick_Handler+0x24>
 800218c:	f04f 23e0 	mov.w	r3, #3758153728	; 0xe000e000
 8002190:	f04f 5280 	mov.w	r2, #268435456	; 0x10000000
 8002194:	f8c3 2d04 	str.w	r2, [r3, #3332]	; 0xd04
 8002198:	2300      	movs	r3, #0
 800219a:	f383 8811 	msr	BASEPRI, r3
 800219e:	bd08      	pop	{r3, pc}

080021a0 <vPortSetupTimerInterrupt>:
 80021a0:	f04f 22e0 	mov.w	r2, #3758153728	; 0xe000e000
 80021a4:	2300      	movs	r3, #0
 80021a6:	f44f 717a 	mov.w	r1, #1000	; 0x3e8
 80021aa:	6113      	str	r3, [r2, #16]
 80021ac:	6193      	str	r3, [r2, #24]
 80021ae:	4b04      	ldr	r3, [pc, #16]	; (80021c0 <vPortSetupTimerInterrupt+0x20>)
 80021b0:	681b      	ldr	r3, [r3, #0]
 80021b2:	fbb3 f3f1 	udiv	r3, r3, r1
 80021b6:	3b01      	subs	r3, #1
 80021b8:	6153      	str	r3, [r2, #20]
 80021ba:	2307      	movs	r3, #7
 80021bc:	6113      	str	r3, [r2, #16]
 80021be:	4770      	bx	lr
 80021c0:	20000000 	.word	0x20000000

080021c4 <xPortStartScheduler>:
 80021c4:	b513      	push	{r0, r1, r4, lr}
 80021c6:	4b29      	ldr	r3, [pc, #164]	; (800226c <xPortStartScheduler+0xa8>)
 80021c8:	2100      	movs	r1, #0
 80021ca:	781a      	ldrb	r2, [r3, #0]
 80021cc:	b2d2      	uxtb	r2, r2
 80021ce:	9201      	str	r2, [sp, #4]
 80021d0:	22ff      	movs	r2, #255	; 0xff
 80021d2:	701a      	strb	r2, [r3, #0]
 80021d4:	781b      	ldrb	r3, [r3, #0]
 80021d6:	4a26      	ldr	r2, [pc, #152]	; (8002270 <xPortStartScheduler+0xac>)
 80021d8:	b2db      	uxtb	r3, r3
 80021da:	f88d 3003 	strb.w	r3, [sp, #3]
 80021de:	f89d 3003 	ldrb.w	r3, [sp, #3]
 80021e2:	f003 0350 	and.w	r3, r3, #80	; 0x50
 80021e6:	7013      	strb	r3, [r2, #0]
 80021e8:	2307      	movs	r3, #7
 80021ea:	4a22      	ldr	r2, [pc, #136]	; (8002274 <xPortStartScheduler+0xb0>)
 80021ec:	6013      	str	r3, [r2, #0]
 80021ee:	f89d 0003 	ldrb.w	r0, [sp, #3]
 80021f2:	1e5c      	subs	r4, r3, #1
 80021f4:	0600      	lsls	r0, r0, #24
 80021f6:	d40c      	bmi.n	8002212 <xPortStartScheduler+0x4e>
 80021f8:	b111      	cbz	r1, 8002200 <xPortStartScheduler+0x3c>
 80021fa:	2b03      	cmp	r3, #3
 80021fc:	6013      	str	r3, [r2, #0]
 80021fe:	d011      	beq.n	8002224 <xPortStartScheduler+0x60>
 8002200:	f04f 0350 	mov.w	r3, #80	; 0x50
 8002204:	f383 8811 	msr	BASEPRI, r3
 8002208:	f3bf 8f6f 	isb	sy
 800220c:	f3bf 8f4f 	dsb	sy
 8002210:	e7fe      	b.n	8002210 <xPortStartScheduler+0x4c>
 8002212:	f89d 3003 	ldrb.w	r3, [sp, #3]
 8002216:	2101      	movs	r1, #1
 8002218:	005b      	lsls	r3, r3, #1
 800221a:	b2db      	uxtb	r3, r3
 800221c:	f88d 3003 	strb.w	r3, [sp, #3]
 8002220:	4623      	mov	r3, r4
 8002222:	e7e4      	b.n	80021ee <xPortStartScheduler+0x2a>
 8002224:	f44f 7340 	mov.w	r3, #768	; 0x300
 8002228:	6013      	str	r3, [r2, #0]
 800222a:	9b01      	ldr	r3, [sp, #4]
 800222c:	4a0f      	ldr	r2, [pc, #60]	; (800226c <xPortStartScheduler+0xa8>)
 800222e:	b2db      	uxtb	r3, r3
 8002230:	7013      	strb	r3, [r2, #0]
 8002232:	f04f 23e0 	mov.w	r3, #3758153728	; 0xe000e000
 8002236:	2400      	movs	r4, #0
 8002238:	f8d3 2d20 	ldr.w	r2, [r3, #3360]	; 0xd20
 800223c:	f442 0270 	orr.w	r2, r2, #15728640	; 0xf00000
 8002240:	f8c3 2d20 	str.w	r2, [r3, #3360]	; 0xd20
 8002244:	f8d3 2d20 	ldr.w	r2, [r3, #3360]	; 0xd20
 8002248:	f042 4270 	orr.w	r2, r2, #4026531840	; 0xf0000000
 800224c:	f8c3 2d20 	str.w	r2, [r3, #3360]	; 0xd20
 8002250:	f7ff ffa6 	bl	80021a0 <vPortSetupTimerInterrupt>
 8002254:	4b08      	ldr	r3, [pc, #32]	; (8002278 <xPortStartScheduler+0xb4>)
 8002256:	601c      	str	r4, [r3, #0]
 8002258:	f7ff fede 	bl	8002018 <prvPortStartFirstTask>
 800225c:	f000 fe6e 	bl	8002f3c <vTaskSwitchContext>
 8002260:	4620      	mov	r0, r4
 8002262:	f7ff fee9 	bl	8002038 <prvTaskExitError>
 8002266:	b002      	add	sp, #8
 8002268:	bd10      	pop	{r4, pc}
 800226a:	bf00      	nop
 800226c:	e000e400 	.word	0xe000e400
 8002270:	200010a0 	.word	0x200010a0
 8002274:	200010a4 	.word	0x200010a4
 8002278:	2000000c 	.word	0x2000000c

0800227c <vPortValidateInterruptPriority>:
 800227c:	f3ef 8305 	mrs	r3, IPSR
 8002280:	2b0f      	cmp	r3, #15
 8002282:	d90e      	bls.n	80022a2 <vPortValidateInterruptPriority+0x26>
 8002284:	4a11      	ldr	r2, [pc, #68]	; (80022cc <vPortValidateInterruptPriority+0x50>)
 8002286:	5c9b      	ldrb	r3, [r3, r2]
 8002288:	4a11      	ldr	r2, [pc, #68]	; (80022d0 <vPortValidateInterruptPriority+0x54>)
 800228a:	7812      	ldrb	r2, [r2, #0]
 800228c:	429a      	cmp	r2, r3
 800228e:	d908      	bls.n	80022a2 <vPortValidateInterruptPriority+0x26>
 8002290:	f04f 0350 	mov.w	r3, #80	; 0x50
 8002294:	f383 8811 	msr	BASEPRI, r3
 8002298:	f3bf 8f6f 	isb	sy
 800229c:	f3bf 8f4f 	dsb	sy
 80022a0:	e7fe      	b.n	80022a0 <vPortValidateInterruptPriority+0x24>
 80022a2:	f04f 23e0 	mov.w	r3, #3758153728	; 0xe000e000
 80022a6:	4a0b      	ldr	r2, [pc, #44]	; (80022d4 <vPortValidateInterruptPriority+0x58>)
 80022a8:	f8d3 3d0c 	ldr.w	r3, [r3, #3340]	; 0xd0c
 80022ac:	6812      	ldr	r2, [r2, #0]
 80022ae:	f403 63e0 	and.w	r3, r3, #1792	; 0x700
 80022b2:	4293      	cmp	r3, r2
 80022b4:	d908      	bls.n	80022c8 <vPortValidateInterruptPriority+0x4c>
 80022b6:	f04f 0350 	mov.w	r3, #80	; 0x50
 80022ba:	f383 8811 	msr	BASEPRI, r3
 80022be:	f3bf 8f6f 	isb	sy
 80022c2:	f3bf 8f4f 	dsb	sy
 80022c6:	e7fe      	b.n	80022c6 <vPortValidateInterruptPriority+0x4a>
 80022c8:	4770      	bx	lr
 80022ca:	bf00      	nop
 80022cc:	e000e3f0 	.word	0xe000e3f0
 80022d0:	200010a0 	.word	0x200010a0
 80022d4:	200010a4 	.word	0x200010a4

080022d8 <prvIsQueueEmpty>:
 80022d8:	b510      	push	{r4, lr}
 80022da:	4604      	mov	r4, r0
 80022dc:	f7ff fef2 	bl	80020c4 <vPortEnterCritical>
 80022e0:	6ba4      	ldr	r4, [r4, #56]	; 0x38
 80022e2:	f7ff ff0f 	bl	8002104 <vPortExitCritical>
 80022e6:	fab4 f084 	clz	r0, r4
 80022ea:	0940      	lsrs	r0, r0, #5
 80022ec:	bd10      	pop	{r4, pc}

080022ee <prvCopyDataToQueue>:
 80022ee:	b5f8      	push	{r3, r4, r5, r6, r7, lr}
 80022f0:	4615      	mov	r5, r2
 80022f2:	6c02      	ldr	r2, [r0, #64]	; 0x40
 80022f4:	4604      	mov	r4, r0
 80022f6:	6b86      	ldr	r6, [r0, #56]	; 0x38
 80022f8:	b952      	cbnz	r2, 8002310 <prvCopyDataToQueue+0x22>
 80022fa:	6807      	ldr	r7, [r0, #0]
 80022fc:	bb47      	cbnz	r7, 8002350 <prvCopyDataToQueue+0x62>
 80022fe:	6840      	ldr	r0, [r0, #4]
 8002300:	f000 ff30 	bl	8003164 <xTaskPriorityDisinherit>
 8002304:	4605      	mov	r5, r0
 8002306:	6067      	str	r7, [r4, #4]
 8002308:	3601      	adds	r6, #1
 800230a:	4628      	mov	r0, r5
 800230c:	63a6      	str	r6, [r4, #56]	; 0x38
 800230e:	bdf8      	pop	{r3, r4, r5, r6, r7, pc}
 8002310:	b965      	cbnz	r5, 800232c <prvCopyDataToQueue+0x3e>
 8002312:	6880      	ldr	r0, [r0, #8]
 8002314:	f001 f9e4 	bl	80036e0 <memcpy>
 8002318:	68a3      	ldr	r3, [r4, #8]
 800231a:	6c22      	ldr	r2, [r4, #64]	; 0x40
 800231c:	4413      	add	r3, r2
 800231e:	6862      	ldr	r2, [r4, #4]
 8002320:	60a3      	str	r3, [r4, #8]
 8002322:	4293      	cmp	r3, r2
 8002324:	d3f0      	bcc.n	8002308 <prvCopyDataToQueue+0x1a>
 8002326:	6823      	ldr	r3, [r4, #0]
 8002328:	60a3      	str	r3, [r4, #8]
 800232a:	e7ed      	b.n	8002308 <prvCopyDataToQueue+0x1a>
 800232c:	68c0      	ldr	r0, [r0, #12]
 800232e:	f001 f9d7 	bl	80036e0 <memcpy>
 8002332:	6c22      	ldr	r2, [r4, #64]	; 0x40
 8002334:	68e3      	ldr	r3, [r4, #12]
 8002336:	4251      	negs	r1, r2
 8002338:	1a9b      	subs	r3, r3, r2
 800233a:	6822      	ldr	r2, [r4, #0]
 800233c:	60e3      	str	r3, [r4, #12]
 800233e:	4293      	cmp	r3, r2
 8002340:	bf3e      	ittt	cc
 8002342:	6863      	ldrcc	r3, [r4, #4]
 8002344:	185b      	addcc	r3, r3, r1
 8002346:	60e3      	strcc	r3, [r4, #12]
 8002348:	2d02      	cmp	r5, #2
 800234a:	d101      	bne.n	8002350 <prvCopyDataToQueue+0x62>
 800234c:	b116      	cbz	r6, 8002354 <prvCopyDataToQueue+0x66>
 800234e:	3e01      	subs	r6, #1
 8002350:	2500      	movs	r5, #0
 8002352:	e7d9      	b.n	8002308 <prvCopyDataToQueue+0x1a>
 8002354:	4635      	mov	r5, r6
 8002356:	e7d7      	b.n	8002308 <prvCopyDataToQueue+0x1a>

08002358 <prvCopyDataFromQueue>:
 8002358:	4603      	mov	r3, r0
 800235a:	6c1a      	ldr	r2, [r3, #64]	; 0x40
 800235c:	4608      	mov	r0, r1
 800235e:	b410      	push	{r4}
 8002360:	b162      	cbz	r2, 800237c <prvCopyDataFromQueue+0x24>
 8002362:	68dc      	ldr	r4, [r3, #12]
 8002364:	6859      	ldr	r1, [r3, #4]
 8002366:	4414      	add	r4, r2
 8002368:	428c      	cmp	r4, r1
 800236a:	bf28      	it	cs
 800236c:	6819      	ldrcs	r1, [r3, #0]
 800236e:	60dc      	str	r4, [r3, #12]
 8002370:	bf28      	it	cs
 8002372:	60d9      	strcs	r1, [r3, #12]
 8002374:	68d9      	ldr	r1, [r3, #12]
 8002376:	bc10      	pop	{r4}
 8002378:	f001 b9b2 	b.w	80036e0 <memcpy>
 800237c:	bc10      	pop	{r4}
 800237e:	4770      	bx	lr

08002380 <prvUnlockQueue>:
 8002380:	b570      	push	{r4, r5, r6, lr}
 8002382:	4604      	mov	r4, r0
 8002384:	f7ff fe9e 	bl	80020c4 <vPortEnterCritical>
 8002388:	f894 5045 	ldrb.w	r5, [r4, #69]	; 0x45
 800238c:	f104 0624 	add.w	r6, r4, #36	; 0x24
 8002390:	b26d      	sxtb	r5, r5
 8002392:	2d00      	cmp	r5, #0
 8002394:	dc14      	bgt.n	80023c0 <prvUnlockQueue+0x40>
 8002396:	23ff      	movs	r3, #255	; 0xff
 8002398:	f884 3045 	strb.w	r3, [r4, #69]	; 0x45
 800239c:	f7ff feb2 	bl	8002104 <vPortExitCritical>
 80023a0:	f7ff fe90 	bl	80020c4 <vPortEnterCritical>
 80023a4:	f894 5044 	ldrb.w	r5, [r4, #68]	; 0x44
 80023a8:	f104 0610 	add.w	r6, r4, #16
 80023ac:	b26d      	sxtb	r5, r5
 80023ae:	2d00      	cmp	r5, #0
 80023b0:	dc12      	bgt.n	80023d8 <prvUnlockQueue+0x58>
 80023b2:	23ff      	movs	r3, #255	; 0xff
 80023b4:	f884 3044 	strb.w	r3, [r4, #68]	; 0x44
 80023b8:	e8bd 4070 	ldmia.w	sp!, {r4, r5, r6, lr}
 80023bc:	f7ff bea2 	b.w	8002104 <vPortExitCritical>
 80023c0:	6a63      	ldr	r3, [r4, #36]	; 0x24
 80023c2:	2b00      	cmp	r3, #0
 80023c4:	d0e7      	beq.n	8002396 <prvUnlockQueue+0x16>
 80023c6:	4630      	mov	r0, r6
 80023c8:	f000 fe2e 	bl	8003028 <xTaskRemoveFromEventList>
 80023cc:	b108      	cbz	r0, 80023d2 <prvUnlockQueue+0x52>
 80023ce:	f000 feb3 	bl	8003138 <vTaskMissedYield>
 80023d2:	3d01      	subs	r5, #1
 80023d4:	b26d      	sxtb	r5, r5
 80023d6:	e7dc      	b.n	8002392 <prvUnlockQueue+0x12>
 80023d8:	6923      	ldr	r3, [r4, #16]
 80023da:	2b00      	cmp	r3, #0
 80023dc:	d0e9      	beq.n	80023b2 <prvUnlockQueue+0x32>
 80023de:	4630      	mov	r0, r6
 80023e0:	f000 fe22 	bl	8003028 <xTaskRemoveFromEventList>
 80023e4:	b108      	cbz	r0, 80023ea <prvUnlockQueue+0x6a>
 80023e6:	f000 fea7 	bl	8003138 <vTaskMissedYield>
 80023ea:	3d01      	subs	r5, #1
 80023ec:	b26d      	sxtb	r5, r5
 80023ee:	e7de      	b.n	80023ae <prvUnlockQueue+0x2e>

080023f0 <xQueueGenericReset>:
 80023f0:	b538      	push	{r3, r4, r5, lr}
 80023f2:	460d      	mov	r5, r1
 80023f4:	4604      	mov	r4, r0
 80023f6:	b940      	cbnz	r0, 800240a <xQueueGenericReset+0x1a>
 80023f8:	f04f 0350 	mov.w	r3, #80	; 0x50
 80023fc:	f383 8811 	msr	BASEPRI, r3
 8002400:	f3bf 8f6f 	isb	sy
 8002404:	f3bf 8f4f 	dsb	sy
 8002408:	e7fe      	b.n	8002408 <xQueueGenericReset+0x18>
 800240a:	f7ff fe5b 	bl	80020c4 <vPortEnterCritical>
 800240e:	e9d4 310f 	ldrd	r3, r1, [r4, #60]	; 0x3c
 8002412:	434b      	muls	r3, r1
 8002414:	6822      	ldr	r2, [r4, #0]
 8002416:	18d0      	adds	r0, r2, r3
 8002418:	1a5b      	subs	r3, r3, r1
 800241a:	4413      	add	r3, r2
 800241c:	6060      	str	r0, [r4, #4]
 800241e:	60e3      	str	r3, [r4, #12]
 8002420:	2000      	movs	r0, #0
 8002422:	23ff      	movs	r3, #255	; 0xff
 8002424:	63a0      	str	r0, [r4, #56]	; 0x38
 8002426:	60a2      	str	r2, [r4, #8]
 8002428:	f884 3044 	strb.w	r3, [r4, #68]	; 0x44
 800242c:	f884 3045 	strb.w	r3, [r4, #69]	; 0x45
 8002430:	b9a5      	cbnz	r5, 800245c <xQueueGenericReset+0x6c>
 8002432:	6923      	ldr	r3, [r4, #16]
 8002434:	b173      	cbz	r3, 8002454 <xQueueGenericReset+0x64>
 8002436:	f104 0010 	add.w	r0, r4, #16
 800243a:	f000 fdf5 	bl	8003028 <xTaskRemoveFromEventList>
 800243e:	b148      	cbz	r0, 8002454 <xQueueGenericReset+0x64>
 8002440:	f04f 23e0 	mov.w	r3, #3758153728	; 0xe000e000
 8002444:	f04f 5280 	mov.w	r2, #268435456	; 0x10000000
 8002448:	f8c3 2d04 	str.w	r2, [r3, #3332]	; 0xd04
 800244c:	f3bf 8f4f 	dsb	sy
 8002450:	f3bf 8f6f 	isb	sy
 8002454:	f7ff fe56 	bl	8002104 <vPortExitCritical>
 8002458:	2001      	movs	r0, #1
 800245a:	bd38      	pop	{r3, r4, r5, pc}
 800245c:	f104 0010 	add.w	r0, r4, #16
 8002460:	f7ff fd98 	bl	8001f94 <vListInitialise>
 8002464:	f104 0024 	add.w	r0, r4, #36	; 0x24
 8002468:	f7ff fd94 	bl	8001f94 <vListInitialise>
 800246c:	e7f2      	b.n	8002454 <xQueueGenericReset+0x64>

0800246e <xQueueGenericCreateStatic>:
 800246e:	b537      	push	{r0, r1, r2, r4, r5, lr}
 8002470:	460d      	mov	r5, r1
 8002472:	461c      	mov	r4, r3
 8002474:	b940      	cbnz	r0, 8002488 <xQueueGenericCreateStatic+0x1a>
 8002476:	f04f 0350 	mov.w	r3, #80	; 0x50
 800247a:	f383 8811 	msr	BASEPRI, r3
 800247e:	f3bf 8f6f 	isb	sy
 8002482:	f3bf 8f4f 	dsb	sy
 8002486:	e7fe      	b.n	8002486 <xQueueGenericCreateStatic+0x18>
 8002488:	b943      	cbnz	r3, 800249c <xQueueGenericCreateStatic+0x2e>
 800248a:	f04f 0350 	mov.w	r3, #80	; 0x50
 800248e:	f383 8811 	msr	BASEPRI, r3
 8002492:	f3bf 8f6f 	isb	sy
 8002496:	f3bf 8f4f 	dsb	sy
 800249a:	e7fe      	b.n	800249a <xQueueGenericCreateStatic+0x2c>
 800249c:	b14a      	cbz	r2, 80024b2 <xQueueGenericCreateStatic+0x44>
 800249e:	b991      	cbnz	r1, 80024c6 <xQueueGenericCreateStatic+0x58>
 80024a0:	f04f 0350 	mov.w	r3, #80	; 0x50
 80024a4:	f383 8811 	msr	BASEPRI, r3
 80024a8:	f3bf 8f6f 	isb	sy
 80024ac:	f3bf 8f4f 	dsb	sy
 80024b0:	e7fe      	b.n	80024b0 <xQueueGenericCreateStatic+0x42>
 80024b2:	b141      	cbz	r1, 80024c6 <xQueueGenericCreateStatic+0x58>
 80024b4:	f04f 0350 	mov.w	r3, #80	; 0x50
 80024b8:	f383 8811 	msr	BASEPRI, r3
 80024bc:	f3bf 8f6f 	isb	sy
 80024c0:	f3bf 8f4f 	dsb	sy
 80024c4:	e7fe      	b.n	80024c4 <xQueueGenericCreateStatic+0x56>
 80024c6:	2350      	movs	r3, #80	; 0x50
 80024c8:	9301      	str	r3, [sp, #4]
 80024ca:	9b01      	ldr	r3, [sp, #4]
 80024cc:	2b50      	cmp	r3, #80	; 0x50
 80024ce:	d008      	beq.n	80024e2 <xQueueGenericCreateStatic+0x74>
 80024d0:	f04f 0350 	mov.w	r3, #80	; 0x50
 80024d4:	f383 8811 	msr	BASEPRI, r3
 80024d8:	f3bf 8f6f 	isb	sy
 80024dc:	f3bf 8f4f 	dsb	sy
 80024e0:	e7fe      	b.n	80024e0 <xQueueGenericCreateStatic+0x72>
 80024e2:	2101      	movs	r1, #1
 80024e4:	2d00      	cmp	r5, #0
 80024e6:	bf08      	it	eq
 80024e8:	4622      	moveq	r2, r4
 80024ea:	e9c4 050f 	strd	r0, r5, [r4, #60]	; 0x3c
 80024ee:	f884 1046 	strb.w	r1, [r4, #70]	; 0x46
 80024f2:	4620      	mov	r0, r4
 80024f4:	6022      	str	r2, [r4, #0]
 80024f6:	f7ff ff7b 	bl	80023f0 <xQueueGenericReset>
 80024fa:	4620      	mov	r0, r4
 80024fc:	f89d 3018 	ldrb.w	r3, [sp, #24]
 8002500:	f884 304c 	strb.w	r3, [r4, #76]	; 0x4c
 8002504:	b003      	add	sp, #12
 8002506:	bd30      	pop	{r4, r5, pc}

08002508 <xQueueGenericSend>:
 8002508:	e92d 43f0 	stmdb	sp!, {r4, r5, r6, r7, r8, r9, lr}
 800250c:	b085      	sub	sp, #20
 800250e:	4688      	mov	r8, r1
 8002510:	461f      	mov	r7, r3
 8002512:	4604      	mov	r4, r0
 8002514:	9201      	str	r2, [sp, #4]
 8002516:	b940      	cbnz	r0, 800252a <xQueueGenericSend+0x22>
 8002518:	f04f 0350 	mov.w	r3, #80	; 0x50
 800251c:	f383 8811 	msr	BASEPRI, r3
 8002520:	f3bf 8f6f 	isb	sy
 8002524:	f3bf 8f4f 	dsb	sy
 8002528:	e7fe      	b.n	8002528 <xQueueGenericSend+0x20>
 800252a:	b951      	cbnz	r1, 8002542 <xQueueGenericSend+0x3a>
 800252c:	6c03      	ldr	r3, [r0, #64]	; 0x40
 800252e:	b143      	cbz	r3, 8002542 <xQueueGenericSend+0x3a>
 8002530:	f04f 0350 	mov.w	r3, #80	; 0x50
 8002534:	f383 8811 	msr	BASEPRI, r3
 8002538:	f3bf 8f6f 	isb	sy
 800253c:	f3bf 8f4f 	dsb	sy
 8002540:	e7fe      	b.n	8002540 <xQueueGenericSend+0x38>
 8002542:	2f02      	cmp	r7, #2
 8002544:	d10b      	bne.n	800255e <xQueueGenericSend+0x56>
 8002546:	6be3      	ldr	r3, [r4, #60]	; 0x3c
 8002548:	2b01      	cmp	r3, #1
 800254a:	d008      	beq.n	800255e <xQueueGenericSend+0x56>
 800254c:	f04f 0350 	mov.w	r3, #80	; 0x50
 8002550:	f383 8811 	msr	BASEPRI, r3
 8002554:	f3bf 8f6f 	isb	sy
 8002558:	f3bf 8f4f 	dsb	sy
 800255c:	e7fe      	b.n	800255c <xQueueGenericSend+0x54>
 800255e:	f000 fdf1 	bl	8003144 <xTaskGetSchedulerState>
 8002562:	4606      	mov	r6, r0
 8002564:	b950      	cbnz	r0, 800257c <xQueueGenericSend+0x74>
 8002566:	9b01      	ldr	r3, [sp, #4]
 8002568:	b14b      	cbz	r3, 800257e <xQueueGenericSend+0x76>
 800256a:	f04f 0350 	mov.w	r3, #80	; 0x50
 800256e:	f383 8811 	msr	BASEPRI, r3
 8002572:	f3bf 8f6f 	isb	sy
 8002576:	f3bf 8f4f 	dsb	sy
 800257a:	e7fe      	b.n	800257a <xQueueGenericSend+0x72>
 800257c:	2600      	movs	r6, #0
 800257e:	f04f 0900 	mov.w	r9, #0
 8002582:	e037      	b.n	80025f4 <xQueueGenericSend+0xec>
 8002584:	9d01      	ldr	r5, [sp, #4]
 8002586:	b91d      	cbnz	r5, 8002590 <xQueueGenericSend+0x88>
 8002588:	f7ff fdbc 	bl	8002104 <vPortExitCritical>
 800258c:	2000      	movs	r0, #0
 800258e:	e052      	b.n	8002636 <xQueueGenericSend+0x12e>
 8002590:	b916      	cbnz	r6, 8002598 <xQueueGenericSend+0x90>
 8002592:	a802      	add	r0, sp, #8
 8002594:	f000 fd88 	bl	80030a8 <vTaskInternalSetTimeOutState>
 8002598:	f7ff fdb4 	bl	8002104 <vPortExitCritical>
 800259c:	f000 fb98 	bl	8002cd0 <vTaskSuspendAll>
 80025a0:	f7ff fd90 	bl	80020c4 <vPortEnterCritical>
 80025a4:	f894 3044 	ldrb.w	r3, [r4, #68]	; 0x44
 80025a8:	2bff      	cmp	r3, #255	; 0xff
 80025aa:	bf08      	it	eq
 80025ac:	f884 9044 	strbeq.w	r9, [r4, #68]	; 0x44
 80025b0:	f894 3045 	ldrb.w	r3, [r4, #69]	; 0x45
 80025b4:	2bff      	cmp	r3, #255	; 0xff
 80025b6:	bf08      	it	eq
 80025b8:	f884 9045 	strbeq.w	r9, [r4, #69]	; 0x45
 80025bc:	f7ff fda2 	bl	8002104 <vPortExitCritical>
 80025c0:	a901      	add	r1, sp, #4
 80025c2:	a802      	add	r0, sp, #8
 80025c4:	f000 fd7c 	bl	80030c0 <xTaskCheckForTimeOut>
 80025c8:	2800      	cmp	r0, #0
 80025ca:	d14a      	bne.n	8002662 <xQueueGenericSend+0x15a>
 80025cc:	f7ff fd7a 	bl	80020c4 <vPortEnterCritical>
 80025d0:	6ba2      	ldr	r2, [r4, #56]	; 0x38
 80025d2:	6be3      	ldr	r3, [r4, #60]	; 0x3c
 80025d4:	429a      	cmp	r2, r3
 80025d6:	d131      	bne.n	800263c <xQueueGenericSend+0x134>
 80025d8:	f7ff fd94 	bl	8002104 <vPortExitCritical>
 80025dc:	9901      	ldr	r1, [sp, #4]
 80025de:	f104 0010 	add.w	r0, r4, #16
 80025e2:	f000 fce7 	bl	8002fb4 <vTaskPlaceOnEventList>
 80025e6:	4620      	mov	r0, r4
 80025e8:	f7ff feca 	bl	8002380 <prvUnlockQueue>
 80025ec:	f000 fc0e 	bl	8002e0c <xTaskResumeAll>
 80025f0:	b360      	cbz	r0, 800264c <xQueueGenericSend+0x144>
 80025f2:	2601      	movs	r6, #1
 80025f4:	f7ff fd66 	bl	80020c4 <vPortEnterCritical>
 80025f8:	6ba2      	ldr	r2, [r4, #56]	; 0x38
 80025fa:	6be3      	ldr	r3, [r4, #60]	; 0x3c
 80025fc:	429a      	cmp	r2, r3
 80025fe:	d301      	bcc.n	8002604 <xQueueGenericSend+0xfc>
 8002600:	2f02      	cmp	r7, #2
 8002602:	d1bf      	bne.n	8002584 <xQueueGenericSend+0x7c>
 8002604:	463a      	mov	r2, r7
 8002606:	4641      	mov	r1, r8
 8002608:	4620      	mov	r0, r4
 800260a:	f7ff fe70 	bl	80022ee <prvCopyDataToQueue>
 800260e:	6a63      	ldr	r3, [r4, #36]	; 0x24
 8002610:	b11b      	cbz	r3, 800261a <xQueueGenericSend+0x112>
 8002612:	f104 0024 	add.w	r0, r4, #36	; 0x24
 8002616:	f000 fd07 	bl	8003028 <xTaskRemoveFromEventList>
 800261a:	b148      	cbz	r0, 8002630 <xQueueGenericSend+0x128>
 800261c:	f04f 23e0 	mov.w	r3, #3758153728	; 0xe000e000
 8002620:	f04f 5280 	mov.w	r2, #268435456	; 0x10000000
 8002624:	f8c3 2d04 	str.w	r2, [r3, #3332]	; 0xd04
 8002628:	f3bf 8f4f 	dsb	sy
 800262c:	f3bf 8f6f 	isb	sy
 8002630:	f7ff fd68 	bl	8002104 <vPortExitCritical>
 8002634:	2001      	movs	r0, #1
 8002636:	b005      	add	sp, #20
 8002638:	e8bd 83f0 	ldmia.w	sp!, {r4, r5, r6, r7, r8, r9, pc}
 800263c:	f7ff fd62 	bl	8002104 <vPortExitCritical>
 8002640:	4620      	mov	r0, r4
 8002642:	f7ff fe9d 	bl	8002380 <prvUnlockQueue>
 8002646:	f000 fbe1 	bl	8002e0c <xTaskResumeAll>
 800264a:	e7d2      	b.n	80025f2 <xQueueGenericSend+0xea>
 800264c:	f04f 23e0 	mov.w	r3, #3758153728	; 0xe000e000
 8002650:	f04f 5280 	mov.w	r2, #268435456	; 0x10000000
 8002654:	f8c3 2d04 	str.w	r2, [r3, #3332]	; 0xd04
 8002658:	f3bf 8f4f 	dsb	sy
 800265c:	f3bf 8f6f 	isb	sy
 8002660:	e7c7      	b.n	80025f2 <xQueueGenericSend+0xea>
 8002662:	4620      	mov	r0, r4
 8002664:	f7ff fe8c 	bl	8002380 <prvUnlockQueue>
 8002668:	f000 fbd0 	bl	8002e0c <xTaskResumeAll>
 800266c:	e78e      	b.n	800258c <xQueueGenericSend+0x84>

0800266e <xQueueCreateMutexStatic>:
 800266e:	2200      	movs	r2, #0
 8002670:	b513      	push	{r0, r1, r4, lr}
 8002672:	460b      	mov	r3, r1
 8002674:	9000      	str	r0, [sp, #0]
 8002676:	4611      	mov	r1, r2
 8002678:	2001      	movs	r0, #1
 800267a:	f7ff fef8 	bl	800246e <xQueueGenericCreateStatic>
 800267e:	4604      	mov	r4, r0
 8002680:	b138      	cbz	r0, 8002692 <xQueueCreateMutexStatic+0x24>
 8002682:	2300      	movs	r3, #0
 8002684:	461a      	mov	r2, r3
 8002686:	4619      	mov	r1, r3
 8002688:	e9c0 3300 	strd	r3, r3, [r0]
 800268c:	60c3      	str	r3, [r0, #12]
 800268e:	f7ff ff3b 	bl	8002508 <xQueueGenericSend>
 8002692:	4620      	mov	r0, r4
 8002694:	b002      	add	sp, #8
 8002696:	bd10      	pop	{r4, pc}

08002698 <xQueueCreateMutex>:
 8002698:	b570      	push	{r4, r5, r6, lr}
 800269a:	4606      	mov	r6, r0
 800269c:	2050      	movs	r0, #80	; 0x50
 800269e:	f7ff fbb1 	bl	8001e04 <pvPortMalloc>
 80026a2:	4604      	mov	r4, r0
 80026a4:	b198      	cbz	r0, 80026ce <xQueueCreateMutex+0x36>
 80026a6:	2500      	movs	r5, #0
 80026a8:	2101      	movs	r1, #1
 80026aa:	f880 5046 	strb.w	r5, [r0, #70]	; 0x46
 80026ae:	e9c0 150f 	strd	r1, r5, [r0, #60]	; 0x3c
 80026b2:	6000      	str	r0, [r0, #0]
 80026b4:	f7ff fe9c 	bl	80023f0 <xQueueGenericReset>
 80026b8:	462b      	mov	r3, r5
 80026ba:	462a      	mov	r2, r5
 80026bc:	4629      	mov	r1, r5
 80026be:	4620      	mov	r0, r4
 80026c0:	e9c4 5500 	strd	r5, r5, [r4]
 80026c4:	f884 604c 	strb.w	r6, [r4, #76]	; 0x4c
 80026c8:	60e5      	str	r5, [r4, #12]
 80026ca:	f7ff ff1d 	bl	8002508 <xQueueGenericSend>
 80026ce:	4620      	mov	r0, r4
 80026d0:	bd70      	pop	{r4, r5, r6, pc}

080026d2 <xQueueGenericSendFromISR>:
 80026d2:	e92d 43f8 	stmdb	sp!, {r3, r4, r5, r6, r7, r8, r9, lr}
 80026d6:	4689      	mov	r9, r1
 80026d8:	4690      	mov	r8, r2
 80026da:	461f      	mov	r7, r3
 80026dc:	4604      	mov	r4, r0
 80026de:	b940      	cbnz	r0, 80026f2 <xQueueGenericSendFromISR+0x20>
 80026e0:	f04f 0350 	mov.w	r3, #80	; 0x50
 80026e4:	f383 8811 	msr	BASEPRI, r3
 80026e8:	f3bf 8f6f 	isb	sy
 80026ec:	f3bf 8f4f 	dsb	sy
 80026f0:	e7fe      	b.n	80026f0 <xQueueGenericSendFromISR+0x1e>
 80026f2:	b951      	cbnz	r1, 800270a <xQueueGenericSendFromISR+0x38>
 80026f4:	6c03      	ldr	r3, [r0, #64]	; 0x40
 80026f6:	b143      	cbz	r3, 800270a <xQueueGenericSendFromISR+0x38>
 80026f8:	f04f 0350 	mov.w	r3, #80	; 0x50
 80026fc:	f383 8811 	msr	BASEPRI, r3
 8002700:	f3bf 8f6f 	isb	sy
 8002704:	f3bf 8f4f 	dsb	sy
 8002708:	e7fe      	b.n	8002708 <xQueueGenericSendFromISR+0x36>
 800270a:	2f02      	cmp	r7, #2
 800270c:	d10b      	bne.n	8002726 <xQueueGenericSendFromISR+0x54>
 800270e:	6be3      	ldr	r3, [r4, #60]	; 0x3c
 8002710:	2b01      	cmp	r3, #1
 8002712:	d008      	beq.n	8002726 <xQueueGenericSendFromISR+0x54>
 8002714:	f04f 0350 	mov.w	r3, #80	; 0x50
 8002718:	f383 8811 	msr	BASEPRI, r3
 800271c:	f3bf 8f6f 	isb	sy
 8002720:	f3bf 8f4f 	dsb	sy
 8002724:	e7fe      	b.n	8002724 <xQueueGenericSendFromISR+0x52>
 8002726:	f7ff fda9 	bl	800227c <vPortValidateInterruptPriority>
 800272a:	f3ef 8611 	mrs	r6, BASEPRI
 800272e:	f04f 0350 	mov.w	r3, #80	; 0x50
 8002732:	f383 8811 	msr	BASEPRI, r3
 8002736:	f3bf 8f6f 	isb	sy
 800273a:	f3bf 8f4f 	dsb	sy
 800273e:	6ba2      	ldr	r2, [r4, #56]	; 0x38
 8002740:	6be3      	ldr	r3, [r4, #60]	; 0x3c
 8002742:	429a      	cmp	r2, r3
 8002744:	d301      	bcc.n	800274a <xQueueGenericSendFromISR+0x78>
 8002746:	2f02      	cmp	r7, #2
 8002748:	d122      	bne.n	8002790 <xQueueGenericSendFromISR+0xbe>
 800274a:	f894 5045 	ldrb.w	r5, [r4, #69]	; 0x45
 800274e:	463a      	mov	r2, r7
 8002750:	4649      	mov	r1, r9
 8002752:	4620      	mov	r0, r4
 8002754:	b26d      	sxtb	r5, r5
 8002756:	f7ff fdca 	bl	80022ee <prvCopyDataToQueue>
 800275a:	1c6b      	adds	r3, r5, #1
 800275c:	d113      	bne.n	8002786 <xQueueGenericSendFromISR+0xb4>
 800275e:	6a63      	ldr	r3, [r4, #36]	; 0x24
 8002760:	b90b      	cbnz	r3, 8002766 <xQueueGenericSendFromISR+0x94>
 8002762:	2001      	movs	r0, #1
 8002764:	e00b      	b.n	800277e <xQueueGenericSendFromISR+0xac>
 8002766:	f104 0024 	add.w	r0, r4, #36	; 0x24
 800276a:	f000 fc5d 	bl	8003028 <xTaskRemoveFromEventList>
 800276e:	2800      	cmp	r0, #0
 8002770:	d0f7      	beq.n	8002762 <xQueueGenericSendFromISR+0x90>
 8002772:	f1b8 0f00 	cmp.w	r8, #0
 8002776:	d0f4      	beq.n	8002762 <xQueueGenericSendFromISR+0x90>
 8002778:	2001      	movs	r0, #1
 800277a:	f8c8 0000 	str.w	r0, [r8]
 800277e:	f386 8811 	msr	BASEPRI, r6
 8002782:	e8bd 83f8 	ldmia.w	sp!, {r3, r4, r5, r6, r7, r8, r9, pc}
 8002786:	3501      	adds	r5, #1
 8002788:	b26d      	sxtb	r5, r5
 800278a:	f884 5045 	strb.w	r5, [r4, #69]	; 0x45
 800278e:	e7e8      	b.n	8002762 <xQueueGenericSendFromISR+0x90>
 8002790:	2000      	movs	r0, #0
 8002792:	e7f4      	b.n	800277e <xQueueGenericSendFromISR+0xac>

08002794 <xQueueReceive>:
 8002794:	e92d 41ff 	stmdb	sp!, {r0, r1, r2, r3, r4, r5, r6, r7, r8, lr}
 8002798:	460f      	mov	r7, r1
 800279a:	4604      	mov	r4, r0
 800279c:	9201      	str	r2, [sp, #4]
 800279e:	b940      	cbnz	r0, 80027b2 <xQueueReceive+0x1e>
 80027a0:	f04f 0350 	mov.w	r3, #80	; 0x50
 80027a4:	f383 8811 	msr	BASEPRI, r3
 80027a8:	f3bf 8f6f 	isb	sy
 80027ac:	f3bf 8f4f 	dsb	sy
 80027b0:	e7fe      	b.n	80027b0 <xQueueReceive+0x1c>
 80027b2:	b951      	cbnz	r1, 80027ca <xQueueReceive+0x36>
 80027b4:	6c03      	ldr	r3, [r0, #64]	; 0x40
 80027b6:	b143      	cbz	r3, 80027ca <xQueueReceive+0x36>
 80027b8:	f04f 0350 	mov.w	r3, #80	; 0x50
 80027bc:	f383 8811 	msr	BASEPRI, r3
 80027c0:	f3bf 8f6f 	isb	sy
 80027c4:	f3bf 8f4f 	dsb	sy
 80027c8:	e7fe      	b.n	80027c8 <xQueueReceive+0x34>
 80027ca:	f000 fcbb 	bl	8003144 <xTaskGetSchedulerState>
 80027ce:	4606      	mov	r6, r0
 80027d0:	b950      	cbnz	r0, 80027e8 <xQueueReceive+0x54>
 80027d2:	9b01      	ldr	r3, [sp, #4]
 80027d4:	b14b      	cbz	r3, 80027ea <xQueueReceive+0x56>
 80027d6:	f04f 0350 	mov.w	r3, #80	; 0x50
 80027da:	f383 8811 	msr	BASEPRI, r3
 80027de:	f3bf 8f6f 	isb	sy
 80027e2:	f3bf 8f4f 	dsb	sy
 80027e6:	e7fe      	b.n	80027e6 <xQueueReceive+0x52>
 80027e8:	2600      	movs	r6, #0
 80027ea:	f04f 0800 	mov.w	r8, #0
 80027ee:	e03d      	b.n	800286c <xQueueReceive+0xd8>
 80027f0:	9d01      	ldr	r5, [sp, #4]
 80027f2:	b91d      	cbnz	r5, 80027fc <xQueueReceive+0x68>
 80027f4:	f7ff fc86 	bl	8002104 <vPortExitCritical>
 80027f8:	2000      	movs	r0, #0
 80027fa:	e056      	b.n	80028aa <xQueueReceive+0x116>
 80027fc:	b916      	cbnz	r6, 8002804 <xQueueReceive+0x70>
 80027fe:	a802      	add	r0, sp, #8
 8002800:	f000 fc52 	bl	80030a8 <vTaskInternalSetTimeOutState>
 8002804:	f7ff fc7e 	bl	8002104 <vPortExitCritical>
 8002808:	f000 fa62 	bl	8002cd0 <vTaskSuspendAll>
 800280c:	f7ff fc5a 	bl	80020c4 <vPortEnterCritical>
 8002810:	f894 3044 	ldrb.w	r3, [r4, #68]	; 0x44
 8002814:	2bff      	cmp	r3, #255	; 0xff
 8002816:	bf08      	it	eq
 8002818:	f884 8044 	strbeq.w	r8, [r4, #68]	; 0x44
 800281c:	f894 3045 	ldrb.w	r3, [r4, #69]	; 0x45
 8002820:	2bff      	cmp	r3, #255	; 0xff
 8002822:	bf08      	it	eq
 8002824:	f884 8045 	strbeq.w	r8, [r4, #69]	; 0x45
 8002828:	f7ff fc6c 	bl	8002104 <vPortExitCritical>
 800282c:	a901      	add	r1, sp, #4
 800282e:	a802      	add	r0, sp, #8
 8002830:	f000 fc46 	bl	80030c0 <xTaskCheckForTimeOut>
 8002834:	2800      	cmp	r0, #0
 8002836:	d141      	bne.n	80028bc <xQueueReceive+0x128>
 8002838:	4620      	mov	r0, r4
 800283a:	f7ff fd4d 	bl	80022d8 <prvIsQueueEmpty>
 800283e:	b3b8      	cbz	r0, 80028b0 <xQueueReceive+0x11c>
 8002840:	9901      	ldr	r1, [sp, #4]
 8002842:	f104 0024 	add.w	r0, r4, #36	; 0x24
 8002846:	f000 fbb5 	bl	8002fb4 <vTaskPlaceOnEventList>
 800284a:	4620      	mov	r0, r4
 800284c:	f7ff fd98 	bl	8002380 <prvUnlockQueue>
 8002850:	f000 fadc 	bl	8002e0c <xTaskResumeAll>
 8002854:	b948      	cbnz	r0, 800286a <xQueueReceive+0xd6>
 8002856:	f04f 23e0 	mov.w	r3, #3758153728	; 0xe000e000
 800285a:	f04f 5280 	mov.w	r2, #268435456	; 0x10000000
 800285e:	f8c3 2d04 	str.w	r2, [r3, #3332]	; 0xd04
 8002862:	f3bf 8f4f 	dsb	sy
 8002866:	f3bf 8f6f 	isb	sy
 800286a:	2601      	movs	r6, #1
 800286c:	f7ff fc2a 	bl	80020c4 <vPortEnterCritical>
 8002870:	6ba5      	ldr	r5, [r4, #56]	; 0x38
 8002872:	2d00      	cmp	r5, #0
 8002874:	d0bc      	beq.n	80027f0 <xQueueReceive+0x5c>
 8002876:	4639      	mov	r1, r7
 8002878:	4620      	mov	r0, r4
 800287a:	3d01      	subs	r5, #1
 800287c:	f7ff fd6c 	bl	8002358 <prvCopyDataFromQueue>
 8002880:	63a5      	str	r5, [r4, #56]	; 0x38
 8002882:	6923      	ldr	r3, [r4, #16]
 8002884:	b173      	cbz	r3, 80028a4 <xQueueReceive+0x110>
 8002886:	f104 0010 	add.w	r0, r4, #16
 800288a:	f000 fbcd 	bl	8003028 <xTaskRemoveFromEventList>
 800288e:	b148      	cbz	r0, 80028a4 <xQueueReceive+0x110>
 8002890:	f04f 23e0 	mov.w	r3, #3758153728	; 0xe000e000
 8002894:	f04f 5280 	mov.w	r2, #268435456	; 0x10000000
 8002898:	f8c3 2d04 	str.w	r2, [r3, #3332]	; 0xd04
 800289c:	f3bf 8f4f 	dsb	sy
 80028a0:	f3bf 8f6f 	isb	sy
 80028a4:	f7ff fc2e 	bl	8002104 <vPortExitCritical>
 80028a8:	2001      	movs	r0, #1
 80028aa:	b004      	add	sp, #16
 80028ac:	e8bd 81f0 	ldmia.w	sp!, {r4, r5, r6, r7, r8, pc}
 80028b0:	4620      	mov	r0, r4
 80028b2:	f7ff fd65 	bl	8002380 <prvUnlockQueue>
 80028b6:	f000 faa9 	bl	8002e0c <xTaskResumeAll>
 80028ba:	e7d6      	b.n	800286a <xQueueReceive+0xd6>
 80028bc:	4620      	mov	r0, r4
 80028be:	f7ff fd5f 	bl	8002380 <prvUnlockQueue>
 80028c2:	f000 faa3 	bl	8002e0c <xTaskResumeAll>
 80028c6:	4620      	mov	r0, r4
 80028c8:	f7ff fd06 	bl	80022d8 <prvIsQueueEmpty>
 80028cc:	2800      	cmp	r0, #0
 80028ce:	d0cc      	beq.n	800286a <xQueueReceive+0xd6>
 80028d0:	e792      	b.n	80027f8 <xQueueReceive+0x64>
	...

080028d4 <vQueueAddToRegistry>:
 80028d4:	2300      	movs	r3, #0
 80028d6:	b510      	push	{r4, lr}
 80028d8:	4a06      	ldr	r2, [pc, #24]	; (80028f4 <vQueueAddToRegistry+0x20>)
 80028da:	f852 4033 	ldr.w	r4, [r2, r3, lsl #3]
 80028de:	b92c      	cbnz	r4, 80028ec <vQueueAddToRegistry+0x18>
 80028e0:	f842 1033 	str.w	r1, [r2, r3, lsl #3]
 80028e4:	eb02 03c3 	add.w	r3, r2, r3, lsl #3
 80028e8:	6058      	str	r0, [r3, #4]
 80028ea:	bd10      	pop	{r4, pc}
 80028ec:	3301      	adds	r3, #1
 80028ee:	2b08      	cmp	r3, #8
 80028f0:	d1f3      	bne.n	80028da <vQueueAddToRegistry+0x6>
 80028f2:	e7fa      	b.n	80028ea <vQueueAddToRegistry+0x16>
 80028f4:	200010a8 	.word	0x200010a8

080028f8 <vQueueWaitForMessageRestricted>:
 80028f8:	b570      	push	{r4, r5, r6, lr}
 80028fa:	4604      	mov	r4, r0
 80028fc:	460d      	mov	r5, r1
 80028fe:	4616      	mov	r6, r2
 8002900:	f7ff fbe0 	bl	80020c4 <vPortEnterCritical>
 8002904:	f894 3044 	ldrb.w	r3, [r4, #68]	; 0x44
 8002908:	2bff      	cmp	r3, #255	; 0xff
 800290a:	bf04      	itt	eq
 800290c:	2300      	moveq	r3, #0
 800290e:	f884 3044 	strbeq.w	r3, [r4, #68]	; 0x44
 8002912:	f894 3045 	ldrb.w	r3, [r4, #69]	; 0x45
 8002916:	2bff      	cmp	r3, #255	; 0xff
 8002918:	bf04      	itt	eq
 800291a:	2300      	moveq	r3, #0
 800291c:	f884 3045 	strbeq.w	r3, [r4, #69]	; 0x45
 8002920:	f7ff fbf0 	bl	8002104 <vPortExitCritical>
 8002924:	6ba3      	ldr	r3, [r4, #56]	; 0x38
 8002926:	b92b      	cbnz	r3, 8002934 <vQueueWaitForMessageRestricted+0x3c>
 8002928:	4632      	mov	r2, r6
 800292a:	4629      	mov	r1, r5
 800292c:	f104 0024 	add.w	r0, r4, #36	; 0x24
 8002930:	f000 fb5a 	bl	8002fe8 <vTaskPlaceOnEventListRestricted>
 8002934:	4620      	mov	r0, r4
 8002936:	e8bd 4070 	ldmia.w	sp!, {r4, r5, r6, lr}
 800293a:	f7ff bd21 	b.w	8002380 <prvUnlockQueue>
	...

08002940 <prvIdleTask>:
 8002940:	f04f 23e0 	mov.w	r3, #3758153728	; 0xe000e000
 8002944:	f04f 5280 	mov.w	r2, #268435456	; 0x10000000
 8002948:	4905      	ldr	r1, [pc, #20]	; (8002960 <prvIdleTask+0x20>)
 800294a:	6808      	ldr	r0, [r1, #0]
 800294c:	2801      	cmp	r0, #1
 800294e:	d9fc      	bls.n	800294a <prvIdleTask+0xa>
 8002950:	f8c3 2d04 	str.w	r2, [r3, #3332]	; 0xd04
 8002954:	f3bf 8f4f 	dsb	sy
 8002958:	f3bf 8f6f 	isb	sy
 800295c:	e7f5      	b.n	800294a <prvIdleTask+0xa>
 800295e:	bf00      	nop
 8002960:	200010f4 	.word	0x200010f4

08002964 <prvAddNewTaskToReadyList>:
 8002964:	e92d 41f0 	stmdb	sp!, {r4, r5, r6, r7, r8, lr}
 8002968:	4604      	mov	r4, r0
 800296a:	f7ff fbab 	bl	80020c4 <vPortEnterCritical>
 800296e:	4b2e      	ldr	r3, [pc, #184]	; (8002a28 <prvAddNewTaskToReadyList+0xc4>)
 8002970:	4e2e      	ldr	r6, [pc, #184]	; (8002a2c <prvAddNewTaskToReadyList+0xc8>)
 8002972:	681a      	ldr	r2, [r3, #0]
 8002974:	4f2e      	ldr	r7, [pc, #184]	; (8002a30 <prvAddNewTaskToReadyList+0xcc>)
 8002976:	3201      	adds	r2, #1
 8002978:	601a      	str	r2, [r3, #0]
 800297a:	6835      	ldr	r5, [r6, #0]
 800297c:	2d00      	cmp	r5, #0
 800297e:	d148      	bne.n	8002a12 <prvAddNewTaskToReadyList+0xae>
 8002980:	6034      	str	r4, [r6, #0]
 8002982:	681b      	ldr	r3, [r3, #0]
 8002984:	2b01      	cmp	r3, #1
 8002986:	d11c      	bne.n	80029c2 <prvAddNewTaskToReadyList+0x5e>
 8002988:	46b8      	mov	r8, r7
 800298a:	4640      	mov	r0, r8
 800298c:	3501      	adds	r5, #1
 800298e:	f7ff fb01 	bl	8001f94 <vListInitialise>
 8002992:	2d38      	cmp	r5, #56	; 0x38
 8002994:	f108 0814 	add.w	r8, r8, #20
 8002998:	d1f7      	bne.n	800298a <prvAddNewTaskToReadyList+0x26>
 800299a:	f8df 8098 	ldr.w	r8, [pc, #152]	; 8002a34 <prvAddNewTaskToReadyList+0xd0>
 800299e:	4d26      	ldr	r5, [pc, #152]	; (8002a38 <prvAddNewTaskToReadyList+0xd4>)
 80029a0:	4640      	mov	r0, r8
 80029a2:	f7ff faf7 	bl	8001f94 <vListInitialise>
 80029a6:	4628      	mov	r0, r5
 80029a8:	f7ff faf4 	bl	8001f94 <vListInitialise>
 80029ac:	4823      	ldr	r0, [pc, #140]	; (8002a3c <prvAddNewTaskToReadyList+0xd8>)
 80029ae:	f7ff faf1 	bl	8001f94 <vListInitialise>
 80029b2:	4823      	ldr	r0, [pc, #140]	; (8002a40 <prvAddNewTaskToReadyList+0xdc>)
 80029b4:	f7ff faee 	bl	8001f94 <vListInitialise>
 80029b8:	4b22      	ldr	r3, [pc, #136]	; (8002a44 <prvAddNewTaskToReadyList+0xe0>)
 80029ba:	f8c3 8000 	str.w	r8, [r3]
 80029be:	4b22      	ldr	r3, [pc, #136]	; (8002a48 <prvAddNewTaskToReadyList+0xe4>)
 80029c0:	601d      	str	r5, [r3, #0]
 80029c2:	2014      	movs	r0, #20
 80029c4:	4a21      	ldr	r2, [pc, #132]	; (8002a4c <prvAddNewTaskToReadyList+0xe8>)
 80029c6:	6813      	ldr	r3, [r2, #0]
 80029c8:	3301      	adds	r3, #1
 80029ca:	6013      	str	r3, [r2, #0]
 80029cc:	4a20      	ldr	r2, [pc, #128]	; (8002a50 <prvAddNewTaskToReadyList+0xec>)
 80029ce:	6463      	str	r3, [r4, #68]	; 0x44
 80029d0:	6811      	ldr	r1, [r2, #0]
 80029d2:	6ae3      	ldr	r3, [r4, #44]	; 0x2c
 80029d4:	428b      	cmp	r3, r1
 80029d6:	fb00 7003 	mla	r0, r0, r3, r7
 80029da:	f104 0104 	add.w	r1, r4, #4
 80029de:	bf88      	it	hi
 80029e0:	6013      	strhi	r3, [r2, #0]
 80029e2:	f7ff fae5 	bl	8001fb0 <vListInsertEnd>
 80029e6:	f7ff fb8d 	bl	8002104 <vPortExitCritical>
 80029ea:	4b1a      	ldr	r3, [pc, #104]	; (8002a54 <prvAddNewTaskToReadyList+0xf0>)
 80029ec:	681b      	ldr	r3, [r3, #0]
 80029ee:	b173      	cbz	r3, 8002a0e <prvAddNewTaskToReadyList+0xaa>
 80029f0:	6833      	ldr	r3, [r6, #0]
 80029f2:	6ada      	ldr	r2, [r3, #44]	; 0x2c
 80029f4:	6ae3      	ldr	r3, [r4, #44]	; 0x2c
 80029f6:	429a      	cmp	r2, r3
 80029f8:	d209      	bcs.n	8002a0e <prvAddNewTaskToReadyList+0xaa>
 80029fa:	f04f 23e0 	mov.w	r3, #3758153728	; 0xe000e000
 80029fe:	f04f 5280 	mov.w	r2, #268435456	; 0x10000000
 8002a02:	f8c3 2d04 	str.w	r2, [r3, #3332]	; 0xd04
 8002a06:	f3bf 8f4f 	dsb	sy
 8002a0a:	f3bf 8f6f 	isb	sy
 8002a0e:	e8bd 81f0 	ldmia.w	sp!, {r4, r5, r6, r7, r8, pc}
 8002a12:	4b10      	ldr	r3, [pc, #64]	; (8002a54 <prvAddNewTaskToReadyList+0xf0>)
 8002a14:	681b      	ldr	r3, [r3, #0]
 8002a16:	2b00      	cmp	r3, #0
 8002a18:	d1d3      	bne.n	80029c2 <prvAddNewTaskToReadyList+0x5e>
 8002a1a:	6833      	ldr	r3, [r6, #0]
 8002a1c:	6ada      	ldr	r2, [r3, #44]	; 0x2c
 8002a1e:	6ae3      	ldr	r3, [r4, #44]	; 0x2c
 8002a20:	429a      	cmp	r2, r3
 8002a22:	bf98      	it	ls
 8002a24:	6034      	strls	r4, [r6, #0]
 8002a26:	e7cc      	b.n	80029c2 <prvAddNewTaskToReadyList+0x5e>
 8002a28:	20001554 	.word	0x20001554
 8002a2c:	200010e8 	.word	0x200010e8
 8002a30:	200010f4 	.word	0x200010f4
 8002a34:	20001568 	.word	0x20001568
 8002a38:	2000157c 	.word	0x2000157c
 8002a3c:	20001598 	.word	0x20001598
 8002a40:	200015b0 	.word	0x200015b0
 8002a44:	200010ec 	.word	0x200010ec
 8002a48:	200010f0 	.word	0x200010f0
 8002a4c:	20001560 	.word	0x20001560
 8002a50:	20001564 	.word	0x20001564
 8002a54:	200015ac 	.word	0x200015ac

08002a58 <prvAddCurrentTaskToDelayedList>:
 8002a58:	b5f8      	push	{r3, r4, r5, r6, r7, lr}
 8002a5a:	4606      	mov	r6, r0
 8002a5c:	4b14      	ldr	r3, [pc, #80]	; (8002ab0 <prvAddCurrentTaskToDelayedList+0x58>)
 8002a5e:	4d15      	ldr	r5, [pc, #84]	; (8002ab4 <prvAddCurrentTaskToDelayedList+0x5c>)
 8002a60:	681c      	ldr	r4, [r3, #0]
 8002a62:	6828      	ldr	r0, [r5, #0]
 8002a64:	460f      	mov	r7, r1
 8002a66:	3004      	adds	r0, #4
 8002a68:	f7ff fac5 	bl	8001ff6 <uxListRemove>
 8002a6c:	1c73      	adds	r3, r6, #1
 8002a6e:	d107      	bne.n	8002a80 <prvAddCurrentTaskToDelayedList+0x28>
 8002a70:	b137      	cbz	r7, 8002a80 <prvAddCurrentTaskToDelayedList+0x28>
 8002a72:	6829      	ldr	r1, [r5, #0]
 8002a74:	4810      	ldr	r0, [pc, #64]	; (8002ab8 <prvAddCurrentTaskToDelayedList+0x60>)
 8002a76:	3104      	adds	r1, #4
 8002a78:	e8bd 40f8 	ldmia.w	sp!, {r3, r4, r5, r6, r7, lr}
 8002a7c:	f7ff ba98 	b.w	8001fb0 <vListInsertEnd>
 8002a80:	682b      	ldr	r3, [r5, #0]
 8002a82:	19a4      	adds	r4, r4, r6
 8002a84:	605c      	str	r4, [r3, #4]
 8002a86:	d307      	bcc.n	8002a98 <prvAddCurrentTaskToDelayedList+0x40>
 8002a88:	4b0c      	ldr	r3, [pc, #48]	; (8002abc <prvAddCurrentTaskToDelayedList+0x64>)
 8002a8a:	6818      	ldr	r0, [r3, #0]
 8002a8c:	6829      	ldr	r1, [r5, #0]
 8002a8e:	e8bd 40f8 	ldmia.w	sp!, {r3, r4, r5, r6, r7, lr}
 8002a92:	3104      	adds	r1, #4
 8002a94:	f7ff ba98 	b.w	8001fc8 <vListInsert>
 8002a98:	4b09      	ldr	r3, [pc, #36]	; (8002ac0 <prvAddCurrentTaskToDelayedList+0x68>)
 8002a9a:	6818      	ldr	r0, [r3, #0]
 8002a9c:	6829      	ldr	r1, [r5, #0]
 8002a9e:	3104      	adds	r1, #4
 8002aa0:	f7ff fa92 	bl	8001fc8 <vListInsert>
 8002aa4:	4b07      	ldr	r3, [pc, #28]	; (8002ac4 <prvAddCurrentTaskToDelayedList+0x6c>)
 8002aa6:	681a      	ldr	r2, [r3, #0]
 8002aa8:	42a2      	cmp	r2, r4
 8002aaa:	bf88      	it	hi
 8002aac:	601c      	strhi	r4, [r3, #0]
 8002aae:	bdf8      	pop	{r3, r4, r5, r6, r7, pc}
 8002ab0:	200015c4 	.word	0x200015c4
 8002ab4:	200010e8 	.word	0x200010e8
 8002ab8:	200015b0 	.word	0x200015b0
 8002abc:	200010f0 	.word	0x200010f0
 8002ac0:	200010ec 	.word	0x200010ec
 8002ac4:	20001590 	.word	0x20001590

08002ac8 <prvResetNextTaskUnblockTime>:
 8002ac8:	4a06      	ldr	r2, [pc, #24]	; (8002ae4 <prvResetNextTaskUnblockTime+0x1c>)
 8002aca:	6813      	ldr	r3, [r2, #0]
 8002acc:	6819      	ldr	r1, [r3, #0]
 8002ace:	4b06      	ldr	r3, [pc, #24]	; (8002ae8 <prvResetNextTaskUnblockTime+0x20>)
 8002ad0:	b919      	cbnz	r1, 8002ada <prvResetNextTaskUnblockTime+0x12>
 8002ad2:	f04f 32ff 	mov.w	r2, #4294967295
 8002ad6:	601a      	str	r2, [r3, #0]
 8002ad8:	4770      	bx	lr
 8002ada:	6812      	ldr	r2, [r2, #0]
 8002adc:	68d2      	ldr	r2, [r2, #12]
 8002ade:	68d2      	ldr	r2, [r2, #12]
 8002ae0:	6852      	ldr	r2, [r2, #4]
 8002ae2:	e7f8      	b.n	8002ad6 <prvResetNextTaskUnblockTime+0xe>
 8002ae4:	200010ec 	.word	0x200010ec
 8002ae8:	20001590 	.word	0x20001590

08002aec <prvInitialiseNewTask.constprop.0>:
 8002aec:	e92d 47f0 	stmdb	sp!, {r4, r5, r6, r7, r8, r9, sl, lr}
 8002af0:	460d      	mov	r5, r1
 8002af2:	e9dd 8409 	ldrd	r8, r4, [sp, #36]	; 0x24
 8002af6:	ea4f 0982 	mov.w	r9, r2, lsl #2
 8002afa:	464a      	mov	r2, r9
 8002afc:	4606      	mov	r6, r0
 8002afe:	21a5      	movs	r1, #165	; 0xa5
 8002b00:	6b20      	ldr	r0, [r4, #48]	; 0x30
 8002b02:	461f      	mov	r7, r3
 8002b04:	f000 fdfa 	bl	80036fc <memset>
 8002b08:	6b22      	ldr	r2, [r4, #48]	; 0x30
 8002b0a:	f1a9 0904 	sub.w	r9, r9, #4
 8002b0e:	4491      	add	r9, r2
 8002b10:	1e6b      	subs	r3, r5, #1
 8002b12:	f029 0907 	bic.w	r9, r9, #7
 8002b16:	f104 0234 	add.w	r2, r4, #52	; 0x34
 8002b1a:	350f      	adds	r5, #15
 8002b1c:	f813 1f01 	ldrb.w	r1, [r3, #1]!
 8002b20:	f802 1b01 	strb.w	r1, [r2], #1
 8002b24:	b109      	cbz	r1, 8002b2a <prvInitialiseNewTask.constprop.0+0x3e>
 8002b26:	42ab      	cmp	r3, r5
 8002b28:	d1f8      	bne.n	8002b1c <prvInitialiseNewTask.constprop.0+0x30>
 8002b2a:	9d08      	ldr	r5, [sp, #32]
 8002b2c:	f04f 0a00 	mov.w	sl, #0
 8002b30:	2d37      	cmp	r5, #55	; 0x37
 8002b32:	bf28      	it	cs
 8002b34:	2537      	movcs	r5, #55	; 0x37
 8002b36:	1d20      	adds	r0, r4, #4
 8002b38:	e9c4 5a13 	strd	r5, sl, [r4, #76]	; 0x4c
 8002b3c:	62e5      	str	r5, [r4, #44]	; 0x2c
 8002b3e:	f884 a043 	strb.w	sl, [r4, #67]	; 0x43
 8002b42:	f7ff fa32 	bl	8001faa <vListInitialiseItem>
 8002b46:	f1c5 0538 	rsb	r5, r5, #56	; 0x38
 8002b4a:	f104 0018 	add.w	r0, r4, #24
 8002b4e:	f7ff fa2c 	bl	8001faa <vListInitialiseItem>
 8002b52:	f8c4 a054 	str.w	sl, [r4, #84]	; 0x54
 8002b56:	463a      	mov	r2, r7
 8002b58:	4631      	mov	r1, r6
 8002b5a:	4648      	mov	r0, r9
 8002b5c:	6124      	str	r4, [r4, #16]
 8002b5e:	61a5      	str	r5, [r4, #24]
 8002b60:	6264      	str	r4, [r4, #36]	; 0x24
 8002b62:	f884 a058 	strb.w	sl, [r4, #88]	; 0x58
 8002b66:	f7ff fa87 	bl	8002078 <pxPortInitialiseStack>
 8002b6a:	6020      	str	r0, [r4, #0]
 8002b6c:	f1b8 0f00 	cmp.w	r8, #0
 8002b70:	d001      	beq.n	8002b76 <prvInitialiseNewTask.constprop.0+0x8a>
 8002b72:	f8c8 4000 	str.w	r4, [r8]
 8002b76:	e8bd 87f0 	ldmia.w	sp!, {r4, r5, r6, r7, r8, r9, sl, pc}

08002b7a <xTaskCreateStatic>:
 8002b7a:	b570      	push	{r4, r5, r6, lr}
 8002b7c:	b086      	sub	sp, #24
 8002b7e:	e9dd 540b 	ldrd	r5, r4, [sp, #44]	; 0x2c
 8002b82:	b945      	cbnz	r5, 8002b96 <xTaskCreateStatic+0x1c>
 8002b84:	f04f 0350 	mov.w	r3, #80	; 0x50
 8002b88:	f383 8811 	msr	BASEPRI, r3
 8002b8c:	f3bf 8f6f 	isb	sy
 8002b90:	f3bf 8f4f 	dsb	sy
 8002b94:	e7fe      	b.n	8002b94 <xTaskCreateStatic+0x1a>
 8002b96:	b944      	cbnz	r4, 8002baa <xTaskCreateStatic+0x30>
 8002b98:	f04f 0350 	mov.w	r3, #80	; 0x50
 8002b9c:	f383 8811 	msr	BASEPRI, r3
 8002ba0:	f3bf 8f6f 	isb	sy
 8002ba4:	f3bf 8f4f 	dsb	sy
 8002ba8:	e7fe      	b.n	8002ba8 <xTaskCreateStatic+0x2e>
 8002baa:	265c      	movs	r6, #92	; 0x5c
 8002bac:	9605      	str	r6, [sp, #20]
 8002bae:	9e05      	ldr	r6, [sp, #20]
 8002bb0:	2e5c      	cmp	r6, #92	; 0x5c
 8002bb2:	d008      	beq.n	8002bc6 <xTaskCreateStatic+0x4c>
 8002bb4:	f04f 0350 	mov.w	r3, #80	; 0x50
 8002bb8:	f383 8811 	msr	BASEPRI, r3
 8002bbc:	f3bf 8f6f 	isb	sy
 8002bc0:	f3bf 8f4f 	dsb	sy
 8002bc4:	e7fe      	b.n	8002bc4 <xTaskCreateStatic+0x4a>
 8002bc6:	6325      	str	r5, [r4, #48]	; 0x30
 8002bc8:	2502      	movs	r5, #2
 8002bca:	f884 5059 	strb.w	r5, [r4, #89]	; 0x59
 8002bce:	ad04      	add	r5, sp, #16
 8002bd0:	9501      	str	r5, [sp, #4]
 8002bd2:	9d0a      	ldr	r5, [sp, #40]	; 0x28
 8002bd4:	9402      	str	r4, [sp, #8]
 8002bd6:	9500      	str	r5, [sp, #0]
 8002bd8:	f7ff ff88 	bl	8002aec <prvInitialiseNewTask.constprop.0>
 8002bdc:	4620      	mov	r0, r4
 8002bde:	f7ff fec1 	bl	8002964 <prvAddNewTaskToReadyList>
 8002be2:	9804      	ldr	r0, [sp, #16]
 8002be4:	b006      	add	sp, #24
 8002be6:	bd70      	pop	{r4, r5, r6, pc}

08002be8 <xTaskCreate>:
 8002be8:	e92d 43f0 	stmdb	sp!, {r4, r5, r6, r7, r8, r9, lr}
 8002bec:	4607      	mov	r7, r0
 8002bee:	b085      	sub	sp, #20
 8002bf0:	0090      	lsls	r0, r2, #2
 8002bf2:	4688      	mov	r8, r1
 8002bf4:	4616      	mov	r6, r2
 8002bf6:	4699      	mov	r9, r3
 8002bf8:	f7ff f904 	bl	8001e04 <pvPortMalloc>
 8002bfc:	4605      	mov	r5, r0
 8002bfe:	b1e8      	cbz	r0, 8002c3c <xTaskCreate+0x54>
 8002c00:	205c      	movs	r0, #92	; 0x5c
 8002c02:	f7ff f8ff 	bl	8001e04 <pvPortMalloc>
 8002c06:	4604      	mov	r4, r0
 8002c08:	b1a8      	cbz	r0, 8002c36 <xTaskCreate+0x4e>
 8002c0a:	2300      	movs	r3, #0
 8002c0c:	f880 3059 	strb.w	r3, [r0, #89]	; 0x59
 8002c10:	9b0d      	ldr	r3, [sp, #52]	; 0x34
 8002c12:	6305      	str	r5, [r0, #48]	; 0x30
 8002c14:	9301      	str	r3, [sp, #4]
 8002c16:	9b0c      	ldr	r3, [sp, #48]	; 0x30
 8002c18:	4632      	mov	r2, r6
 8002c1a:	4641      	mov	r1, r8
 8002c1c:	9002      	str	r0, [sp, #8]
 8002c1e:	9300      	str	r3, [sp, #0]
 8002c20:	4638      	mov	r0, r7
 8002c22:	464b      	mov	r3, r9
 8002c24:	f7ff ff62 	bl	8002aec <prvInitialiseNewTask.constprop.0>
 8002c28:	4620      	mov	r0, r4
 8002c2a:	f7ff fe9b 	bl	8002964 <prvAddNewTaskToReadyList>
 8002c2e:	2001      	movs	r0, #1
 8002c30:	b005      	add	sp, #20
 8002c32:	e8bd 83f0 	ldmia.w	sp!, {r4, r5, r6, r7, r8, r9, pc}
 8002c36:	4628      	mov	r0, r5
 8002c38:	f7ff f974 	bl	8001f24 <vPortFree>
 8002c3c:	f04f 30ff 	mov.w	r0, #4294967295
 8002c40:	e7f6      	b.n	8002c30 <xTaskCreate+0x48>
	...

08002c44 <vTaskStartScheduler>:
 8002c44:	b510      	push	{r4, lr}
 8002c46:	2400      	movs	r4, #0
 8002c48:	b088      	sub	sp, #32
 8002c4a:	aa07      	add	r2, sp, #28
 8002c4c:	a906      	add	r1, sp, #24
 8002c4e:	a805      	add	r0, sp, #20
 8002c50:	e9cd 4405 	strd	r4, r4, [sp, #20]
 8002c54:	f7ff f89a 	bl	8001d8c <vApplicationGetIdleTaskMemory>
 8002c58:	9b05      	ldr	r3, [sp, #20]
 8002c5a:	9a07      	ldr	r2, [sp, #28]
 8002c5c:	9302      	str	r3, [sp, #8]
 8002c5e:	9b06      	ldr	r3, [sp, #24]
 8002c60:	4916      	ldr	r1, [pc, #88]	; (8002cbc <vTaskStartScheduler+0x78>)
 8002c62:	e9cd 4300 	strd	r4, r3, [sp]
 8002c66:	4816      	ldr	r0, [pc, #88]	; (8002cc0 <vTaskStartScheduler+0x7c>)
 8002c68:	4623      	mov	r3, r4
 8002c6a:	f7ff ff86 	bl	8002b7a <xTaskCreateStatic>
 8002c6e:	b318      	cbz	r0, 8002cb8 <vTaskStartScheduler+0x74>
 8002c70:	f000 fb0c 	bl	800328c <xTimerCreateTimerTask>
 8002c74:	2801      	cmp	r0, #1
 8002c76:	d114      	bne.n	8002ca2 <vTaskStartScheduler+0x5e>
 8002c78:	f04f 0350 	mov.w	r3, #80	; 0x50
 8002c7c:	f383 8811 	msr	BASEPRI, r3
 8002c80:	f3bf 8f6f 	isb	sy
 8002c84:	f3bf 8f4f 	dsb	sy
 8002c88:	f04f 32ff 	mov.w	r2, #4294967295
 8002c8c:	4b0d      	ldr	r3, [pc, #52]	; (8002cc4 <vTaskStartScheduler+0x80>)
 8002c8e:	601a      	str	r2, [r3, #0]
 8002c90:	4b0d      	ldr	r3, [pc, #52]	; (8002cc8 <vTaskStartScheduler+0x84>)
 8002c92:	6018      	str	r0, [r3, #0]
 8002c94:	4b0d      	ldr	r3, [pc, #52]	; (8002ccc <vTaskStartScheduler+0x88>)
 8002c96:	601c      	str	r4, [r3, #0]
 8002c98:	b008      	add	sp, #32
 8002c9a:	e8bd 4010 	ldmia.w	sp!, {r4, lr}
 8002c9e:	f7ff ba91 	b.w	80021c4 <xPortStartScheduler>
 8002ca2:	3001      	adds	r0, #1
 8002ca4:	d108      	bne.n	8002cb8 <vTaskStartScheduler+0x74>
 8002ca6:	f04f 0350 	mov.w	r3, #80	; 0x50
 8002caa:	f383 8811 	msr	BASEPRI, r3
 8002cae:	f3bf 8f6f 	isb	sy
 8002cb2:	f3bf 8f4f 	dsb	sy
 8002cb6:	e7fe      	b.n	8002cb6 <vTaskStartScheduler+0x72>
 8002cb8:	b008      	add	sp, #32
 8002cba:	bd10      	pop	{r4, pc}
 8002cbc:	080037c6 	.word	0x080037c6
 8002cc0:	08002941 	.word	0x08002941
 8002cc4:	20001590 	.word	0x20001590
 8002cc8:	200015ac 	.word	0x200015ac
 8002ccc:	200015c4 	.word	0x200015c4

08002cd0 <vTaskSuspendAll>:
 8002cd0:	4a02      	ldr	r2, [pc, #8]	; (8002cdc <vTaskSuspendAll+0xc>)
 8002cd2:	6813      	ldr	r3, [r2, #0]
 8002cd4:	3301      	adds	r3, #1
 8002cd6:	6013      	str	r3, [r2, #0]
 8002cd8:	4770      	bx	lr
 8002cda:	bf00      	nop
 8002cdc:	2000155c 	.word	0x2000155c

08002ce0 <xTaskGetTickCount>:
 8002ce0:	4b01      	ldr	r3, [pc, #4]	; (8002ce8 <xTaskGetTickCount+0x8>)
 8002ce2:	6818      	ldr	r0, [r3, #0]
 8002ce4:	4770      	bx	lr
 8002ce6:	bf00      	nop
 8002ce8:	200015c4 	.word	0x200015c4

08002cec <xTaskIncrementTick>:
 8002cec:	e92d 4ff8 	stmdb	sp!, {r3, r4, r5, r6, r7, r8, r9, sl, fp, lr}
 8002cf0:	4b3b      	ldr	r3, [pc, #236]	; (8002de0 <xTaskIncrementTick+0xf4>)
 8002cf2:	681b      	ldr	r3, [r3, #0]
 8002cf4:	2b00      	cmp	r3, #0
 8002cf6:	d16d      	bne.n	8002dd4 <xTaskIncrementTick+0xe8>
 8002cf8:	4b3a      	ldr	r3, [pc, #232]	; (8002de4 <xTaskIncrementTick+0xf8>)
 8002cfa:	681d      	ldr	r5, [r3, #0]
 8002cfc:	3501      	adds	r5, #1
 8002cfe:	601d      	str	r5, [r3, #0]
 8002d00:	b9bd      	cbnz	r5, 8002d32 <xTaskIncrementTick+0x46>
 8002d02:	4b39      	ldr	r3, [pc, #228]	; (8002de8 <xTaskIncrementTick+0xfc>)
 8002d04:	681a      	ldr	r2, [r3, #0]
 8002d06:	6812      	ldr	r2, [r2, #0]
 8002d08:	b142      	cbz	r2, 8002d1c <xTaskIncrementTick+0x30>
 8002d0a:	f04f 0350 	mov.w	r3, #80	; 0x50
 8002d0e:	f383 8811 	msr	BASEPRI, r3
 8002d12:	f3bf 8f6f 	isb	sy
 8002d16:	f3bf 8f4f 	dsb	sy
 8002d1a:	e7fe      	b.n	8002d1a <xTaskIncrementTick+0x2e>
 8002d1c:	4a33      	ldr	r2, [pc, #204]	; (8002dec <xTaskIncrementTick+0x100>)
 8002d1e:	6819      	ldr	r1, [r3, #0]
 8002d20:	6810      	ldr	r0, [r2, #0]
 8002d22:	6018      	str	r0, [r3, #0]
 8002d24:	6011      	str	r1, [r2, #0]
 8002d26:	4a32      	ldr	r2, [pc, #200]	; (8002df0 <xTaskIncrementTick+0x104>)
 8002d28:	6813      	ldr	r3, [r2, #0]
 8002d2a:	3301      	adds	r3, #1
 8002d2c:	6013      	str	r3, [r2, #0]
 8002d2e:	f7ff fecb 	bl	8002ac8 <prvResetNextTaskUnblockTime>
 8002d32:	4e30      	ldr	r6, [pc, #192]	; (8002df4 <xTaskIncrementTick+0x108>)
 8002d34:	2400      	movs	r4, #0
 8002d36:	6833      	ldr	r3, [r6, #0]
 8002d38:	4f2f      	ldr	r7, [pc, #188]	; (8002df8 <xTaskIncrementTick+0x10c>)
 8002d3a:	42ab      	cmp	r3, r5
 8002d3c:	d910      	bls.n	8002d60 <xTaskIncrementTick+0x74>
 8002d3e:	2214      	movs	r2, #20
 8002d40:	4b2e      	ldr	r3, [pc, #184]	; (8002dfc <xTaskIncrementTick+0x110>)
 8002d42:	681b      	ldr	r3, [r3, #0]
 8002d44:	6adb      	ldr	r3, [r3, #44]	; 0x2c
 8002d46:	4353      	muls	r3, r2
 8002d48:	58fb      	ldr	r3, [r7, r3]
 8002d4a:	2b02      	cmp	r3, #2
 8002d4c:	bf28      	it	cs
 8002d4e:	2401      	movcs	r4, #1
 8002d50:	4b2b      	ldr	r3, [pc, #172]	; (8002e00 <xTaskIncrementTick+0x114>)
 8002d52:	681b      	ldr	r3, [r3, #0]
 8002d54:	2b00      	cmp	r3, #0
 8002d56:	bf0c      	ite	eq
 8002d58:	4620      	moveq	r0, r4
 8002d5a:	2001      	movne	r0, #1
 8002d5c:	e8bd 8ff8 	ldmia.w	sp!, {r3, r4, r5, r6, r7, r8, r9, sl, fp, pc}
 8002d60:	f8df 9084 	ldr.w	r9, [pc, #132]	; 8002de8 <xTaskIncrementTick+0xfc>
 8002d64:	f8df a09c 	ldr.w	sl, [pc, #156]	; 8002e04 <xTaskIncrementTick+0x118>
 8002d68:	f8d9 3000 	ldr.w	r3, [r9]
 8002d6c:	681b      	ldr	r3, [r3, #0]
 8002d6e:	b91b      	cbnz	r3, 8002d78 <xTaskIncrementTick+0x8c>
 8002d70:	f04f 33ff 	mov.w	r3, #4294967295
 8002d74:	6033      	str	r3, [r6, #0]
 8002d76:	e7e2      	b.n	8002d3e <xTaskIncrementTick+0x52>
 8002d78:	f8d9 3000 	ldr.w	r3, [r9]
 8002d7c:	68db      	ldr	r3, [r3, #12]
 8002d7e:	f8d3 b00c 	ldr.w	fp, [r3, #12]
 8002d82:	f8db 2004 	ldr.w	r2, [fp, #4]
 8002d86:	4295      	cmp	r5, r2
 8002d88:	d201      	bcs.n	8002d8e <xTaskIncrementTick+0xa2>
 8002d8a:	6032      	str	r2, [r6, #0]
 8002d8c:	e7d7      	b.n	8002d3e <xTaskIncrementTick+0x52>
 8002d8e:	f10b 0804 	add.w	r8, fp, #4
 8002d92:	4640      	mov	r0, r8
 8002d94:	f7ff f92f 	bl	8001ff6 <uxListRemove>
 8002d98:	f8db 2028 	ldr.w	r2, [fp, #40]	; 0x28
 8002d9c:	b11a      	cbz	r2, 8002da6 <xTaskIncrementTick+0xba>
 8002d9e:	f10b 0018 	add.w	r0, fp, #24
 8002da2:	f7ff f928 	bl	8001ff6 <uxListRemove>
 8002da6:	2314      	movs	r3, #20
 8002da8:	f8db 002c 	ldr.w	r0, [fp, #44]	; 0x2c
 8002dac:	f8da 2000 	ldr.w	r2, [sl]
 8002db0:	4641      	mov	r1, r8
 8002db2:	4290      	cmp	r0, r2
 8002db4:	bf88      	it	hi
 8002db6:	f8ca 0000 	strhi.w	r0, [sl]
 8002dba:	fb03 7000 	mla	r0, r3, r0, r7
 8002dbe:	f7ff f8f7 	bl	8001fb0 <vListInsertEnd>
 8002dc2:	4b0e      	ldr	r3, [pc, #56]	; (8002dfc <xTaskIncrementTick+0x110>)
 8002dc4:	f8db 202c 	ldr.w	r2, [fp, #44]	; 0x2c
 8002dc8:	6819      	ldr	r1, [r3, #0]
 8002dca:	6acb      	ldr	r3, [r1, #44]	; 0x2c
 8002dcc:	429a      	cmp	r2, r3
 8002dce:	bf28      	it	cs
 8002dd0:	2401      	movcs	r4, #1
 8002dd2:	e7c9      	b.n	8002d68 <xTaskIncrementTick+0x7c>
 8002dd4:	4a0c      	ldr	r2, [pc, #48]	; (8002e08 <xTaskIncrementTick+0x11c>)
 8002dd6:	2400      	movs	r4, #0
 8002dd8:	6813      	ldr	r3, [r2, #0]
 8002dda:	3301      	adds	r3, #1
 8002ddc:	6013      	str	r3, [r2, #0]
 8002dde:	e7b7      	b.n	8002d50 <xTaskIncrementTick+0x64>
 8002de0:	2000155c 	.word	0x2000155c
 8002de4:	200015c4 	.word	0x200015c4
 8002de8:	200010ec 	.word	0x200010ec
 8002dec:	200010f0 	.word	0x200010f0
 8002df0:	20001594 	.word	0x20001594
 8002df4:	20001590 	.word	0x20001590
 8002df8:	200010f4 	.word	0x200010f4
 8002dfc:	200010e8 	.word	0x200010e8
 8002e00:	200015c8 	.word	0x200015c8
 8002e04:	20001564 	.word	0x20001564
 8002e08:	20001558 	.word	0x20001558

08002e0c <xTaskResumeAll>:
 8002e0c:	e92d 41f0 	stmdb	sp!, {r4, r5, r6, r7, r8, lr}
 8002e10:	4c30      	ldr	r4, [pc, #192]	; (8002ed4 <xTaskResumeAll+0xc8>)
 8002e12:	6823      	ldr	r3, [r4, #0]
 8002e14:	b943      	cbnz	r3, 8002e28 <xTaskResumeAll+0x1c>
 8002e16:	f04f 0350 	mov.w	r3, #80	; 0x50
 8002e1a:	f383 8811 	msr	BASEPRI, r3
 8002e1e:	f3bf 8f6f 	isb	sy
 8002e22:	f3bf 8f4f 	dsb	sy
 8002e26:	e7fe      	b.n	8002e26 <xTaskResumeAll+0x1a>
 8002e28:	f7ff f94c 	bl	80020c4 <vPortEnterCritical>
 8002e2c:	6823      	ldr	r3, [r4, #0]
 8002e2e:	3b01      	subs	r3, #1
 8002e30:	6023      	str	r3, [r4, #0]
 8002e32:	6824      	ldr	r4, [r4, #0]
 8002e34:	b12c      	cbz	r4, 8002e42 <xTaskResumeAll+0x36>
 8002e36:	2400      	movs	r4, #0
 8002e38:	f7ff f964 	bl	8002104 <vPortExitCritical>
 8002e3c:	4620      	mov	r0, r4
 8002e3e:	e8bd 81f0 	ldmia.w	sp!, {r4, r5, r6, r7, r8, pc}
 8002e42:	4b25      	ldr	r3, [pc, #148]	; (8002ed8 <xTaskResumeAll+0xcc>)
 8002e44:	681b      	ldr	r3, [r3, #0]
 8002e46:	2b00      	cmp	r3, #0
 8002e48:	d0f5      	beq.n	8002e36 <xTaskResumeAll+0x2a>
 8002e4a:	4d24      	ldr	r5, [pc, #144]	; (8002edc <xTaskResumeAll+0xd0>)
 8002e4c:	4e24      	ldr	r6, [pc, #144]	; (8002ee0 <xTaskResumeAll+0xd4>)
 8002e4e:	f8df 8094 	ldr.w	r8, [pc, #148]	; 8002ee4 <xTaskResumeAll+0xd8>
 8002e52:	e01d      	b.n	8002e90 <xTaskResumeAll+0x84>
 8002e54:	68eb      	ldr	r3, [r5, #12]
 8002e56:	68dc      	ldr	r4, [r3, #12]
 8002e58:	1d27      	adds	r7, r4, #4
 8002e5a:	f104 0018 	add.w	r0, r4, #24
 8002e5e:	f7ff f8ca 	bl	8001ff6 <uxListRemove>
 8002e62:	4638      	mov	r0, r7
 8002e64:	f7ff f8c7 	bl	8001ff6 <uxListRemove>
 8002e68:	2014      	movs	r0, #20
 8002e6a:	6ae3      	ldr	r3, [r4, #44]	; 0x2c
 8002e6c:	6832      	ldr	r2, [r6, #0]
 8002e6e:	fb00 8003 	mla	r0, r0, r3, r8
 8002e72:	4293      	cmp	r3, r2
 8002e74:	4639      	mov	r1, r7
 8002e76:	bf88      	it	hi
 8002e78:	6033      	strhi	r3, [r6, #0]
 8002e7a:	f7ff f899 	bl	8001fb0 <vListInsertEnd>
 8002e7e:	4b1a      	ldr	r3, [pc, #104]	; (8002ee8 <xTaskResumeAll+0xdc>)
 8002e80:	6ae2      	ldr	r2, [r4, #44]	; 0x2c
 8002e82:	681b      	ldr	r3, [r3, #0]
 8002e84:	6adb      	ldr	r3, [r3, #44]	; 0x2c
 8002e86:	429a      	cmp	r2, r3
 8002e88:	d302      	bcc.n	8002e90 <xTaskResumeAll+0x84>
 8002e8a:	2201      	movs	r2, #1
 8002e8c:	4b17      	ldr	r3, [pc, #92]	; (8002eec <xTaskResumeAll+0xe0>)
 8002e8e:	601a      	str	r2, [r3, #0]
 8002e90:	682b      	ldr	r3, [r5, #0]
 8002e92:	2b00      	cmp	r3, #0
 8002e94:	d1de      	bne.n	8002e54 <xTaskResumeAll+0x48>
 8002e96:	b10c      	cbz	r4, 8002e9c <xTaskResumeAll+0x90>
 8002e98:	f7ff fe16 	bl	8002ac8 <prvResetNextTaskUnblockTime>
 8002e9c:	4d14      	ldr	r5, [pc, #80]	; (8002ef0 <xTaskResumeAll+0xe4>)
 8002e9e:	682c      	ldr	r4, [r5, #0]
 8002ea0:	b144      	cbz	r4, 8002eb4 <xTaskResumeAll+0xa8>
 8002ea2:	2701      	movs	r7, #1
 8002ea4:	4e11      	ldr	r6, [pc, #68]	; (8002eec <xTaskResumeAll+0xe0>)
 8002ea6:	f7ff ff21 	bl	8002cec <xTaskIncrementTick>
 8002eaa:	b100      	cbz	r0, 8002eae <xTaskResumeAll+0xa2>
 8002eac:	6037      	str	r7, [r6, #0]
 8002eae:	3c01      	subs	r4, #1
 8002eb0:	d1f9      	bne.n	8002ea6 <xTaskResumeAll+0x9a>
 8002eb2:	602c      	str	r4, [r5, #0]
 8002eb4:	4b0d      	ldr	r3, [pc, #52]	; (8002eec <xTaskResumeAll+0xe0>)
 8002eb6:	681b      	ldr	r3, [r3, #0]
 8002eb8:	2b00      	cmp	r3, #0
 8002eba:	d0bc      	beq.n	8002e36 <xTaskResumeAll+0x2a>
 8002ebc:	f04f 23e0 	mov.w	r3, #3758153728	; 0xe000e000
 8002ec0:	f04f 5280 	mov.w	r2, #268435456	; 0x10000000
 8002ec4:	f8c3 2d04 	str.w	r2, [r3, #3332]	; 0xd04
 8002ec8:	f3bf 8f4f 	dsb	sy
 8002ecc:	f3bf 8f6f 	isb	sy
 8002ed0:	2401      	movs	r4, #1
 8002ed2:	e7b1      	b.n	8002e38 <xTaskResumeAll+0x2c>
 8002ed4:	2000155c 	.word	0x2000155c
 8002ed8:	20001554 	.word	0x20001554
 8002edc:	20001598 	.word	0x20001598
 8002ee0:	20001564 	.word	0x20001564
 8002ee4:	200010f4 	.word	0x200010f4
 8002ee8:	200010e8 	.word	0x200010e8
 8002eec:	200015c8 	.word	0x200015c8
 8002ef0:	20001558 	.word	0x20001558

08002ef4 <vTaskDelay>:
 8002ef4:	b508      	push	{r3, lr}
 8002ef6:	b950      	cbnz	r0, 8002f0e <vTaskDelay+0x1a>
 8002ef8:	f04f 23e0 	mov.w	r3, #3758153728	; 0xe000e000
 8002efc:	f04f 5280 	mov.w	r2, #268435456	; 0x10000000
 8002f00:	f8c3 2d04 	str.w	r2, [r3, #3332]	; 0xd04
 8002f04:	f3bf 8f4f 	dsb	sy
 8002f08:	f3bf 8f6f 	isb	sy
 8002f0c:	bd08      	pop	{r3, pc}
 8002f0e:	4b0a      	ldr	r3, [pc, #40]	; (8002f38 <vTaskDelay+0x44>)
 8002f10:	6819      	ldr	r1, [r3, #0]
 8002f12:	b141      	cbz	r1, 8002f26 <vTaskDelay+0x32>
 8002f14:	f04f 0350 	mov.w	r3, #80	; 0x50
 8002f18:	f383 8811 	msr	BASEPRI, r3
 8002f1c:	f3bf 8f6f 	isb	sy
 8002f20:	f3bf 8f4f 	dsb	sy
 8002f24:	e7fe      	b.n	8002f24 <vTaskDelay+0x30>
 8002f26:	f7ff fed3 	bl	8002cd0 <vTaskSuspendAll>
 8002f2a:	f7ff fd95 	bl	8002a58 <prvAddCurrentTaskToDelayedList>
 8002f2e:	f7ff ff6d 	bl	8002e0c <xTaskResumeAll>
 8002f32:	2800      	cmp	r0, #0
 8002f34:	d0e0      	beq.n	8002ef8 <vTaskDelay+0x4>
 8002f36:	e7e9      	b.n	8002f0c <vTaskDelay+0x18>
 8002f38:	2000155c 	.word	0x2000155c

08002f3c <vTaskSwitchContext>:
 8002f3c:	4b18      	ldr	r3, [pc, #96]	; (8002fa0 <vTaskSwitchContext+0x64>)
 8002f3e:	b570      	push	{r4, r5, r6, lr}
 8002f40:	681a      	ldr	r2, [r3, #0]
 8002f42:	4b18      	ldr	r3, [pc, #96]	; (8002fa4 <vTaskSwitchContext+0x68>)
 8002f44:	b112      	cbz	r2, 8002f4c <vTaskSwitchContext+0x10>
 8002f46:	2201      	movs	r2, #1
 8002f48:	601a      	str	r2, [r3, #0]
 8002f4a:	bd70      	pop	{r4, r5, r6, pc}
 8002f4c:	2614      	movs	r6, #20
 8002f4e:	4d16      	ldr	r5, [pc, #88]	; (8002fa8 <vTaskSwitchContext+0x6c>)
 8002f50:	601a      	str	r2, [r3, #0]
 8002f52:	682a      	ldr	r2, [r5, #0]
 8002f54:	4915      	ldr	r1, [pc, #84]	; (8002fac <vTaskSwitchContext+0x70>)
 8002f56:	fb06 f302 	mul.w	r3, r6, r2
 8002f5a:	58cc      	ldr	r4, [r1, r3]
 8002f5c:	18c8      	adds	r0, r1, r3
 8002f5e:	b194      	cbz	r4, 8002f86 <vTaskSwitchContext+0x4a>
 8002f60:	6844      	ldr	r4, [r0, #4]
 8002f62:	3308      	adds	r3, #8
 8002f64:	6864      	ldr	r4, [r4, #4]
 8002f66:	440b      	add	r3, r1
 8002f68:	429c      	cmp	r4, r3
 8002f6a:	bf08      	it	eq
 8002f6c:	6863      	ldreq	r3, [r4, #4]
 8002f6e:	6044      	str	r4, [r0, #4]
 8002f70:	bf08      	it	eq
 8002f72:	6043      	streq	r3, [r0, #4]
 8002f74:	2314      	movs	r3, #20
 8002f76:	fb03 1102 	mla	r1, r3, r2, r1
 8002f7a:	684b      	ldr	r3, [r1, #4]
 8002f7c:	68d9      	ldr	r1, [r3, #12]
 8002f7e:	4b0c      	ldr	r3, [pc, #48]	; (8002fb0 <vTaskSwitchContext+0x74>)
 8002f80:	6019      	str	r1, [r3, #0]
 8002f82:	602a      	str	r2, [r5, #0]
 8002f84:	e7e1      	b.n	8002f4a <vTaskSwitchContext+0xe>
 8002f86:	b942      	cbnz	r2, 8002f9a <vTaskSwitchContext+0x5e>
 8002f88:	f04f 0350 	mov.w	r3, #80	; 0x50
 8002f8c:	f383 8811 	msr	BASEPRI, r3
 8002f90:	f3bf 8f6f 	isb	sy
 8002f94:	f3bf 8f4f 	dsb	sy
 8002f98:	e7fe      	b.n	8002f98 <vTaskSwitchContext+0x5c>
 8002f9a:	3a01      	subs	r2, #1
 8002f9c:	e7db      	b.n	8002f56 <vTaskSwitchContext+0x1a>
 8002f9e:	bf00      	nop
 8002fa0:	2000155c 	.word	0x2000155c
 8002fa4:	200015c8 	.word	0x200015c8
 8002fa8:	20001564 	.word	0x20001564
 8002fac:	200010f4 	.word	0x200010f4
 8002fb0:	200010e8 	.word	0x200010e8

08002fb4 <vTaskPlaceOnEventList>:
 8002fb4:	b510      	push	{r4, lr}
 8002fb6:	460c      	mov	r4, r1
 8002fb8:	b940      	cbnz	r0, 8002fcc <vTaskPlaceOnEventList+0x18>
 8002fba:	f04f 0350 	mov.w	r3, #80	; 0x50
 8002fbe:	f383 8811 	msr	BASEPRI, r3
 8002fc2:	f3bf 8f6f 	isb	sy
 8002fc6:	f3bf 8f4f 	dsb	sy
 8002fca:	e7fe      	b.n	8002fca <vTaskPlaceOnEventList+0x16>
 8002fcc:	4b05      	ldr	r3, [pc, #20]	; (8002fe4 <vTaskPlaceOnEventList+0x30>)
 8002fce:	6819      	ldr	r1, [r3, #0]
 8002fd0:	3118      	adds	r1, #24
 8002fd2:	f7fe fff9 	bl	8001fc8 <vListInsert>
 8002fd6:	4620      	mov	r0, r4
 8002fd8:	e8bd 4010 	ldmia.w	sp!, {r4, lr}
 8002fdc:	2101      	movs	r1, #1
 8002fde:	f7ff bd3b 	b.w	8002a58 <prvAddCurrentTaskToDelayedList>
 8002fe2:	bf00      	nop
 8002fe4:	200010e8 	.word	0x200010e8

08002fe8 <vTaskPlaceOnEventListRestricted>:
 8002fe8:	b538      	push	{r3, r4, r5, lr}
 8002fea:	460d      	mov	r5, r1
 8002fec:	4614      	mov	r4, r2
 8002fee:	b940      	cbnz	r0, 8003002 <vTaskPlaceOnEventListRestricted+0x1a>
 8002ff0:	f04f 0350 	mov.w	r3, #80	; 0x50
 8002ff4:	f383 8811 	msr	BASEPRI, r3
 8002ff8:	f3bf 8f6f 	isb	sy
 8002ffc:	f3bf 8f4f 	dsb	sy
 8003000:	e7fe      	b.n	8003000 <vTaskPlaceOnEventListRestricted+0x18>
 8003002:	4b08      	ldr	r3, [pc, #32]	; (8003024 <vTaskPlaceOnEventListRestricted+0x3c>)
 8003004:	6819      	ldr	r1, [r3, #0]
 8003006:	3118      	adds	r1, #24
 8003008:	f7fe ffd2 	bl	8001fb0 <vListInsertEnd>
 800300c:	2c00      	cmp	r4, #0
 800300e:	4621      	mov	r1, r4
 8003010:	bf08      	it	eq
 8003012:	4628      	moveq	r0, r5
 8003014:	e8bd 4038 	ldmia.w	sp!, {r3, r4, r5, lr}
 8003018:	bf18      	it	ne
 800301a:	f04f 30ff 	movne.w	r0, #4294967295
 800301e:	f7ff bd1b 	b.w	8002a58 <prvAddCurrentTaskToDelayedList>
 8003022:	bf00      	nop
 8003024:	200010e8 	.word	0x200010e8

08003028 <xTaskRemoveFromEventList>:
 8003028:	b538      	push	{r3, r4, r5, lr}
 800302a:	68c3      	ldr	r3, [r0, #12]
 800302c:	68dc      	ldr	r4, [r3, #12]
 800302e:	b944      	cbnz	r4, 8003042 <xTaskRemoveFromEventList+0x1a>
 8003030:	f04f 0350 	mov.w	r3, #80	; 0x50
 8003034:	f383 8811 	msr	BASEPRI, r3
 8003038:	f3bf 8f6f 	isb	sy
 800303c:	f3bf 8f4f 	dsb	sy
 8003040:	e7fe      	b.n	8003040 <xTaskRemoveFromEventList+0x18>
 8003042:	f104 0518 	add.w	r5, r4, #24
 8003046:	4628      	mov	r0, r5
 8003048:	f7fe ffd5 	bl	8001ff6 <uxListRemove>
 800304c:	4b10      	ldr	r3, [pc, #64]	; (8003090 <xTaskRemoveFromEventList+0x68>)
 800304e:	681b      	ldr	r3, [r3, #0]
 8003050:	b9db      	cbnz	r3, 800308a <xTaskRemoveFromEventList+0x62>
 8003052:	1d25      	adds	r5, r4, #4
 8003054:	4628      	mov	r0, r5
 8003056:	f7fe ffce 	bl	8001ff6 <uxListRemove>
 800305a:	4a0e      	ldr	r2, [pc, #56]	; (8003094 <xTaskRemoveFromEventList+0x6c>)
 800305c:	2014      	movs	r0, #20
 800305e:	6811      	ldr	r1, [r2, #0]
 8003060:	6ae3      	ldr	r3, [r4, #44]	; 0x2c
 8003062:	428b      	cmp	r3, r1
 8003064:	4629      	mov	r1, r5
 8003066:	bf88      	it	hi
 8003068:	6013      	strhi	r3, [r2, #0]
 800306a:	4a0b      	ldr	r2, [pc, #44]	; (8003098 <xTaskRemoveFromEventList+0x70>)
 800306c:	fb00 2003 	mla	r0, r0, r3, r2
 8003070:	f7fe ff9e 	bl	8001fb0 <vListInsertEnd>
 8003074:	4b09      	ldr	r3, [pc, #36]	; (800309c <xTaskRemoveFromEventList+0x74>)
 8003076:	6ae2      	ldr	r2, [r4, #44]	; 0x2c
 8003078:	681b      	ldr	r3, [r3, #0]
 800307a:	6adb      	ldr	r3, [r3, #44]	; 0x2c
 800307c:	429a      	cmp	r2, r3
 800307e:	bf85      	ittet	hi
 8003080:	2001      	movhi	r0, #1
 8003082:	4b07      	ldrhi	r3, [pc, #28]	; (80030a0 <xTaskRemoveFromEventList+0x78>)
 8003084:	2000      	movls	r0, #0
 8003086:	6018      	strhi	r0, [r3, #0]
 8003088:	bd38      	pop	{r3, r4, r5, pc}
 800308a:	4629      	mov	r1, r5
 800308c:	4805      	ldr	r0, [pc, #20]	; (80030a4 <xTaskRemoveFromEventList+0x7c>)
 800308e:	e7ef      	b.n	8003070 <xTaskRemoveFromEventList+0x48>
 8003090:	2000155c 	.word	0x2000155c
 8003094:	20001564 	.word	0x20001564
 8003098:	200010f4 	.word	0x200010f4
 800309c:	200010e8 	.word	0x200010e8
 80030a0:	200015c8 	.word	0x200015c8
 80030a4:	20001598 	.word	0x20001598

080030a8 <vTaskInternalSetTimeOutState>:
 80030a8:	4b03      	ldr	r3, [pc, #12]	; (80030b8 <vTaskInternalSetTimeOutState+0x10>)
 80030aa:	681b      	ldr	r3, [r3, #0]
 80030ac:	6003      	str	r3, [r0, #0]
 80030ae:	4b03      	ldr	r3, [pc, #12]	; (80030bc <vTaskInternalSetTimeOutState+0x14>)
 80030b0:	681b      	ldr	r3, [r3, #0]
 80030b2:	6043      	str	r3, [r0, #4]
 80030b4:	4770      	bx	lr
 80030b6:	bf00      	nop
 80030b8:	20001594 	.word	0x20001594
 80030bc:	200015c4 	.word	0x200015c4

080030c0 <xTaskCheckForTimeOut>:
 80030c0:	b570      	push	{r4, r5, r6, lr}
 80030c2:	460c      	mov	r4, r1
 80030c4:	4605      	mov	r5, r0
 80030c6:	b940      	cbnz	r0, 80030da <xTaskCheckForTimeOut+0x1a>
 80030c8:	f04f 0350 	mov.w	r3, #80	; 0x50
 80030cc:	f383 8811 	msr	BASEPRI, r3
 80030d0:	f3bf 8f6f 	isb	sy
 80030d4:	f3bf 8f4f 	dsb	sy
 80030d8:	e7fe      	b.n	80030d8 <xTaskCheckForTimeOut+0x18>
 80030da:	b941      	cbnz	r1, 80030ee <xTaskCheckForTimeOut+0x2e>
 80030dc:	f04f 0350 	mov.w	r3, #80	; 0x50
 80030e0:	f383 8811 	msr	BASEPRI, r3
 80030e4:	f3bf 8f6f 	isb	sy
 80030e8:	f3bf 8f4f 	dsb	sy
 80030ec:	e7fe      	b.n	80030ec <xTaskCheckForTimeOut+0x2c>
 80030ee:	f7fe ffe9 	bl	80020c4 <vPortEnterCritical>
 80030f2:	4b0f      	ldr	r3, [pc, #60]	; (8003130 <xTaskCheckForTimeOut+0x70>)
 80030f4:	6819      	ldr	r1, [r3, #0]
 80030f6:	6823      	ldr	r3, [r4, #0]
 80030f8:	1c5a      	adds	r2, r3, #1
 80030fa:	d010      	beq.n	800311e <xTaskCheckForTimeOut+0x5e>
 80030fc:	480d      	ldr	r0, [pc, #52]	; (8003134 <xTaskCheckForTimeOut+0x74>)
 80030fe:	682e      	ldr	r6, [r5, #0]
 8003100:	6800      	ldr	r0, [r0, #0]
 8003102:	686a      	ldr	r2, [r5, #4]
 8003104:	4286      	cmp	r6, r0
 8003106:	d001      	beq.n	800310c <xTaskCheckForTimeOut+0x4c>
 8003108:	428a      	cmp	r2, r1
 800310a:	d90f      	bls.n	800312c <xTaskCheckForTimeOut+0x6c>
 800310c:	1a88      	subs	r0, r1, r2
 800310e:	4283      	cmp	r3, r0
 8003110:	d90a      	bls.n	8003128 <xTaskCheckForTimeOut+0x68>
 8003112:	1a5b      	subs	r3, r3, r1
 8003114:	4413      	add	r3, r2
 8003116:	4628      	mov	r0, r5
 8003118:	6023      	str	r3, [r4, #0]
 800311a:	f7ff ffc5 	bl	80030a8 <vTaskInternalSetTimeOutState>
 800311e:	2400      	movs	r4, #0
 8003120:	f7fe fff0 	bl	8002104 <vPortExitCritical>
 8003124:	4620      	mov	r0, r4
 8003126:	bd70      	pop	{r4, r5, r6, pc}
 8003128:	2300      	movs	r3, #0
 800312a:	6023      	str	r3, [r4, #0]
 800312c:	2401      	movs	r4, #1
 800312e:	e7f7      	b.n	8003120 <xTaskCheckForTimeOut+0x60>
 8003130:	200015c4 	.word	0x200015c4
 8003134:	20001594 	.word	0x20001594

08003138 <vTaskMissedYield>:
 8003138:	2201      	movs	r2, #1
 800313a:	4b01      	ldr	r3, [pc, #4]	; (8003140 <vTaskMissedYield+0x8>)
 800313c:	601a      	str	r2, [r3, #0]
 800313e:	4770      	bx	lr
 8003140:	200015c8 	.word	0x200015c8

08003144 <xTaskGetSchedulerState>:
 8003144:	4b05      	ldr	r3, [pc, #20]	; (800315c <xTaskGetSchedulerState+0x18>)
 8003146:	681b      	ldr	r3, [r3, #0]
 8003148:	b133      	cbz	r3, 8003158 <xTaskGetSchedulerState+0x14>
 800314a:	4b05      	ldr	r3, [pc, #20]	; (8003160 <xTaskGetSchedulerState+0x1c>)
 800314c:	681b      	ldr	r3, [r3, #0]
 800314e:	2b00      	cmp	r3, #0
 8003150:	bf0c      	ite	eq
 8003152:	2002      	moveq	r0, #2
 8003154:	2000      	movne	r0, #0
 8003156:	4770      	bx	lr
 8003158:	2001      	movs	r0, #1
 800315a:	4770      	bx	lr
 800315c:	200015ac 	.word	0x200015ac
 8003160:	2000155c 	.word	0x2000155c

08003164 <xTaskPriorityDisinherit>:
 8003164:	b538      	push	{r3, r4, r5, lr}
 8003166:	b908      	cbnz	r0, 800316c <xTaskPriorityDisinherit+0x8>
 8003168:	2000      	movs	r0, #0
 800316a:	bd38      	pop	{r3, r4, r5, pc}
 800316c:	4b1b      	ldr	r3, [pc, #108]	; (80031dc <xTaskPriorityDisinherit+0x78>)
 800316e:	681c      	ldr	r4, [r3, #0]
 8003170:	4284      	cmp	r4, r0
 8003172:	d008      	beq.n	8003186 <xTaskPriorityDisinherit+0x22>
 8003174:	f04f 0350 	mov.w	r3, #80	; 0x50
 8003178:	f383 8811 	msr	BASEPRI, r3
 800317c:	f3bf 8f6f 	isb	sy
 8003180:	f3bf 8f4f 	dsb	sy
 8003184:	e7fe      	b.n	8003184 <xTaskPriorityDisinherit+0x20>
 8003186:	6d23      	ldr	r3, [r4, #80]	; 0x50
 8003188:	b943      	cbnz	r3, 800319c <xTaskPriorityDisinherit+0x38>
 800318a:	f04f 0350 	mov.w	r3, #80	; 0x50
 800318e:	f383 8811 	msr	BASEPRI, r3
 8003192:	f3bf 8f6f 	isb	sy
 8003196:	f3bf 8f4f 	dsb	sy
 800319a:	e7fe      	b.n	800319a <xTaskPriorityDisinherit+0x36>
 800319c:	6ae1      	ldr	r1, [r4, #44]	; 0x2c
 800319e:	6ce2      	ldr	r2, [r4, #76]	; 0x4c
 80031a0:	3b01      	subs	r3, #1
 80031a2:	4291      	cmp	r1, r2
 80031a4:	6523      	str	r3, [r4, #80]	; 0x50
 80031a6:	d0df      	beq.n	8003168 <xTaskPriorityDisinherit+0x4>
 80031a8:	2b00      	cmp	r3, #0
 80031aa:	d1dd      	bne.n	8003168 <xTaskPriorityDisinherit+0x4>
 80031ac:	1d25      	adds	r5, r4, #4
 80031ae:	4628      	mov	r0, r5
 80031b0:	f7fe ff21 	bl	8001ff6 <uxListRemove>
 80031b4:	2014      	movs	r0, #20
 80031b6:	6ce3      	ldr	r3, [r4, #76]	; 0x4c
 80031b8:	f1c3 0238 	rsb	r2, r3, #56	; 0x38
 80031bc:	61a2      	str	r2, [r4, #24]
 80031be:	4a08      	ldr	r2, [pc, #32]	; (80031e0 <xTaskPriorityDisinherit+0x7c>)
 80031c0:	62e3      	str	r3, [r4, #44]	; 0x2c
 80031c2:	6811      	ldr	r1, [r2, #0]
 80031c4:	428b      	cmp	r3, r1
 80031c6:	bf88      	it	hi
 80031c8:	6013      	strhi	r3, [r2, #0]
 80031ca:	4a06      	ldr	r2, [pc, #24]	; (80031e4 <xTaskPriorityDisinherit+0x80>)
 80031cc:	4629      	mov	r1, r5
 80031ce:	fb00 2003 	mla	r0, r0, r3, r2
 80031d2:	f7fe feed 	bl	8001fb0 <vListInsertEnd>
 80031d6:	2001      	movs	r0, #1
 80031d8:	e7c7      	b.n	800316a <xTaskPriorityDisinherit+0x6>
 80031da:	bf00      	nop
 80031dc:	200010e8 	.word	0x200010e8
 80031e0:	20001564 	.word	0x20001564
 80031e4:	200010f4 	.word	0x200010f4

080031e8 <prvCheckForValidListAndQueue>:
 80031e8:	b5f7      	push	{r0, r1, r2, r4, r5, r6, r7, lr}
 80031ea:	4c11      	ldr	r4, [pc, #68]	; (8003230 <prvCheckForValidListAndQueue+0x48>)
 80031ec:	f7fe ff6a 	bl	80020c4 <vPortEnterCritical>
 80031f0:	6825      	ldr	r5, [r4, #0]
 80031f2:	b9bd      	cbnz	r5, 8003224 <prvCheckForValidListAndQueue+0x3c>
 80031f4:	4f0f      	ldr	r7, [pc, #60]	; (8003234 <prvCheckForValidListAndQueue+0x4c>)
 80031f6:	4e10      	ldr	r6, [pc, #64]	; (8003238 <prvCheckForValidListAndQueue+0x50>)
 80031f8:	4638      	mov	r0, r7
 80031fa:	f7fe fecb 	bl	8001f94 <vListInitialise>
 80031fe:	4630      	mov	r0, r6
 8003200:	f7fe fec8 	bl	8001f94 <vListInitialise>
 8003204:	4b0d      	ldr	r3, [pc, #52]	; (800323c <prvCheckForValidListAndQueue+0x54>)
 8003206:	2110      	movs	r1, #16
 8003208:	601f      	str	r7, [r3, #0]
 800320a:	4b0d      	ldr	r3, [pc, #52]	; (8003240 <prvCheckForValidListAndQueue+0x58>)
 800320c:	200a      	movs	r0, #10
 800320e:	601e      	str	r6, [r3, #0]
 8003210:	4a0c      	ldr	r2, [pc, #48]	; (8003244 <prvCheckForValidListAndQueue+0x5c>)
 8003212:	4b0d      	ldr	r3, [pc, #52]	; (8003248 <prvCheckForValidListAndQueue+0x60>)
 8003214:	9500      	str	r5, [sp, #0]
 8003216:	f7ff f92a 	bl	800246e <xQueueGenericCreateStatic>
 800321a:	6020      	str	r0, [r4, #0]
 800321c:	b110      	cbz	r0, 8003224 <prvCheckForValidListAndQueue+0x3c>
 800321e:	490b      	ldr	r1, [pc, #44]	; (800324c <prvCheckForValidListAndQueue+0x64>)
 8003220:	f7ff fb58 	bl	80028d4 <vQueueAddToRegistry>
 8003224:	b003      	add	sp, #12
 8003226:	e8bd 40f0 	ldmia.w	sp!, {r4, r5, r6, r7, lr}
 800322a:	f7fe bf6b 	b.w	8002104 <vPortExitCritical>
 800322e:	bf00      	nop
 8003230:	200016f0 	.word	0x200016f0
 8003234:	20001674 	.word	0x20001674
 8003238:	20001688 	.word	0x20001688
 800323c:	200015cc 	.word	0x200015cc
 8003240:	200015d0 	.word	0x200015d0
 8003244:	200015d4 	.word	0x200015d4
 8003248:	200016a0 	.word	0x200016a0
 800324c:	080037cb 	.word	0x080037cb

08003250 <prvInsertTimerInActiveList>:
 8003250:	4291      	cmp	r1, r2
 8003252:	b508      	push	{r3, lr}
 8003254:	6041      	str	r1, [r0, #4]
 8003256:	6100      	str	r0, [r0, #16]
 8003258:	d80a      	bhi.n	8003270 <prvInsertTimerInActiveList+0x20>
 800325a:	1ad2      	subs	r2, r2, r3
 800325c:	6983      	ldr	r3, [r0, #24]
 800325e:	429a      	cmp	r2, r3
 8003260:	d20d      	bcs.n	800327e <prvInsertTimerInActiveList+0x2e>
 8003262:	4b08      	ldr	r3, [pc, #32]	; (8003284 <prvInsertTimerInActiveList+0x34>)
 8003264:	1d01      	adds	r1, r0, #4
 8003266:	6818      	ldr	r0, [r3, #0]
 8003268:	f7fe feae 	bl	8001fc8 <vListInsert>
 800326c:	2000      	movs	r0, #0
 800326e:	bd08      	pop	{r3, pc}
 8003270:	429a      	cmp	r2, r3
 8003272:	d201      	bcs.n	8003278 <prvInsertTimerInActiveList+0x28>
 8003274:	4299      	cmp	r1, r3
 8003276:	d202      	bcs.n	800327e <prvInsertTimerInActiveList+0x2e>
 8003278:	4b03      	ldr	r3, [pc, #12]	; (8003288 <prvInsertTimerInActiveList+0x38>)
 800327a:	1d01      	adds	r1, r0, #4
 800327c:	e7f3      	b.n	8003266 <prvInsertTimerInActiveList+0x16>
 800327e:	2001      	movs	r0, #1
 8003280:	e7f5      	b.n	800326e <prvInsertTimerInActiveList+0x1e>
 8003282:	bf00      	nop
 8003284:	200015d0 	.word	0x200015d0
 8003288:	200015cc 	.word	0x200015cc

0800328c <xTimerCreateTimerTask>:
 800328c:	b510      	push	{r4, lr}
 800328e:	b088      	sub	sp, #32
 8003290:	f7ff ffaa 	bl	80031e8 <prvCheckForValidListAndQueue>
 8003294:	4b12      	ldr	r3, [pc, #72]	; (80032e0 <xTimerCreateTimerTask+0x54>)
 8003296:	681b      	ldr	r3, [r3, #0]
 8003298:	b1b3      	cbz	r3, 80032c8 <xTimerCreateTimerTask+0x3c>
 800329a:	2400      	movs	r4, #0
 800329c:	aa07      	add	r2, sp, #28
 800329e:	a906      	add	r1, sp, #24
 80032a0:	a805      	add	r0, sp, #20
 80032a2:	e9cd 4405 	strd	r4, r4, [sp, #20]
 80032a6:	f7fe fd7d 	bl	8001da4 <vApplicationGetTimerTaskMemory>
 80032aa:	9b05      	ldr	r3, [sp, #20]
 80032ac:	9a07      	ldr	r2, [sp, #28]
 80032ae:	9302      	str	r3, [sp, #8]
 80032b0:	9b06      	ldr	r3, [sp, #24]
 80032b2:	490c      	ldr	r1, [pc, #48]	; (80032e4 <xTimerCreateTimerTask+0x58>)
 80032b4:	9301      	str	r3, [sp, #4]
 80032b6:	2302      	movs	r3, #2
 80032b8:	480b      	ldr	r0, [pc, #44]	; (80032e8 <xTimerCreateTimerTask+0x5c>)
 80032ba:	9300      	str	r3, [sp, #0]
 80032bc:	4623      	mov	r3, r4
 80032be:	f7ff fc5c 	bl	8002b7a <xTaskCreateStatic>
 80032c2:	4b0a      	ldr	r3, [pc, #40]	; (80032ec <xTimerCreateTimerTask+0x60>)
 80032c4:	6018      	str	r0, [r3, #0]
 80032c6:	b940      	cbnz	r0, 80032da <xTimerCreateTimerTask+0x4e>
 80032c8:	f04f 0350 	mov.w	r3, #80	; 0x50
 80032cc:	f383 8811 	msr	BASEPRI, r3
 80032d0:	f3bf 8f6f 	isb	sy
 80032d4:	f3bf 8f4f 	dsb	sy
 80032d8:	e7fe      	b.n	80032d8 <xTimerCreateTimerTask+0x4c>
 80032da:	2001      	movs	r0, #1
 80032dc:	b008      	add	sp, #32
 80032de:	bd10      	pop	{r4, pc}
 80032e0:	200016f0 	.word	0x200016f0
 80032e4:	080037d0 	.word	0x080037d0
 80032e8:	080034b9 	.word	0x080034b9
 80032ec:	200016f4 	.word	0x200016f4

080032f0 <xTimerCreate>:
 80032f0:	e92d 41f0 	stmdb	sp!, {r4, r5, r6, r7, r8, lr}
 80032f4:	4680      	mov	r8, r0
 80032f6:	2030      	movs	r0, #48	; 0x30
 80032f8:	460d      	mov	r5, r1
 80032fa:	4617      	mov	r7, r2
 80032fc:	461e      	mov	r6, r3
 80032fe:	f7fe fd81 	bl	8001e04 <pvPortMalloc>
 8003302:	4604      	mov	r4, r0
 8003304:	b1c0      	cbz	r0, 8003338 <xTimerCreate+0x48>
 8003306:	b945      	cbnz	r5, 800331a <xTimerCreate+0x2a>
 8003308:	f04f 0350 	mov.w	r3, #80	; 0x50
 800330c:	f383 8811 	msr	BASEPRI, r3
 8003310:	f3bf 8f6f 	isb	sy
 8003314:	f3bf 8f4f 	dsb	sy
 8003318:	e7fe      	b.n	8003318 <xTimerCreate+0x28>
 800331a:	f7ff ff65 	bl	80031e8 <prvCheckForValidListAndQueue>
 800331e:	9b06      	ldr	r3, [sp, #24]
 8003320:	e9c4 5706 	strd	r5, r7, [r4, #24]
 8003324:	6263      	str	r3, [r4, #36]	; 0x24
 8003326:	f8c4 8000 	str.w	r8, [r4]
 800332a:	6226      	str	r6, [r4, #32]
 800332c:	1d20      	adds	r0, r4, #4
 800332e:	f7fe fe3c 	bl	8001faa <vListInitialiseItem>
 8003332:	2300      	movs	r3, #0
 8003334:	f884 302c 	strb.w	r3, [r4, #44]	; 0x2c
 8003338:	4620      	mov	r0, r4
 800333a:	e8bd 81f0 	ldmia.w	sp!, {r4, r5, r6, r7, r8, pc}

0800333e <xTimerCreateStatic>:
 800333e:	e92d 41f3 	stmdb	sp!, {r0, r1, r4, r5, r6, r7, r8, lr}
 8003342:	461e      	mov	r6, r3
 8003344:	2330      	movs	r3, #48	; 0x30
 8003346:	9301      	str	r3, [sp, #4]
 8003348:	9b01      	ldr	r3, [sp, #4]
 800334a:	4680      	mov	r8, r0
 800334c:	2b30      	cmp	r3, #48	; 0x30
 800334e:	460d      	mov	r5, r1
 8003350:	4617      	mov	r7, r2
 8003352:	9c09      	ldr	r4, [sp, #36]	; 0x24
 8003354:	d008      	beq.n	8003368 <xTimerCreateStatic+0x2a>
 8003356:	f04f 0350 	mov.w	r3, #80	; 0x50
 800335a:	f383 8811 	msr	BASEPRI, r3
 800335e:	f3bf 8f6f 	isb	sy
 8003362:	f3bf 8f4f 	dsb	sy
 8003366:	e7fe      	b.n	8003366 <xTimerCreateStatic+0x28>
 8003368:	b944      	cbnz	r4, 800337c <xTimerCreateStatic+0x3e>
 800336a:	f04f 0350 	mov.w	r3, #80	; 0x50
 800336e:	f383 8811 	msr	BASEPRI, r3
 8003372:	f3bf 8f6f 	isb	sy
 8003376:	f3bf 8f4f 	dsb	sy
 800337a:	e7fe      	b.n	800337a <xTimerCreateStatic+0x3c>
 800337c:	b941      	cbnz	r1, 8003390 <xTimerCreateStatic+0x52>
 800337e:	f04f 0350 	mov.w	r3, #80	; 0x50
 8003382:	f383 8811 	msr	BASEPRI, r3
 8003386:	f3bf 8f6f 	isb	sy
 800338a:	f3bf 8f4f 	dsb	sy
 800338e:	e7fe      	b.n	800338e <xTimerCreateStatic+0x50>
 8003390:	f7ff ff2a 	bl	80031e8 <prvCheckForValidListAndQueue>
 8003394:	9b08      	ldr	r3, [sp, #32]
 8003396:	1d20      	adds	r0, r4, #4
 8003398:	6263      	str	r3, [r4, #36]	; 0x24
 800339a:	e9c4 5706 	strd	r5, r7, [r4, #24]
 800339e:	f8c4 8000 	str.w	r8, [r4]
 80033a2:	6226      	str	r6, [r4, #32]
 80033a4:	f7fe fe01 	bl	8001faa <vListInitialiseItem>
 80033a8:	2301      	movs	r3, #1
 80033aa:	4620      	mov	r0, r4
 80033ac:	f884 302c 	strb.w	r3, [r4, #44]	; 0x2c
 80033b0:	b002      	add	sp, #8
 80033b2:	e8bd 81f0 	ldmia.w	sp!, {r4, r5, r6, r7, r8, pc}
	...

080033b8 <xTimerGenericCommand>:
 80033b8:	b57f      	push	{r0, r1, r2, r3, r4, r5, r6, lr}
 80033ba:	4616      	mov	r6, r2
 80033bc:	4604      	mov	r4, r0
 80033be:	461a      	mov	r2, r3
 80033c0:	b940      	cbnz	r0, 80033d4 <xTimerGenericCommand+0x1c>
 80033c2:	f04f 0350 	mov.w	r3, #80	; 0x50
 80033c6:	f383 8811 	msr	BASEPRI, r3
 80033ca:	f3bf 8f6f 	isb	sy
 80033ce:	f3bf 8f4f 	dsb	sy
 80033d2:	e7fe      	b.n	80033d2 <xTimerGenericCommand+0x1a>
 80033d4:	4d0d      	ldr	r5, [pc, #52]	; (800340c <xTimerGenericCommand+0x54>)
 80033d6:	6828      	ldr	r0, [r5, #0]
 80033d8:	b180      	cbz	r0, 80033fc <xTimerGenericCommand+0x44>
 80033da:	2905      	cmp	r1, #5
 80033dc:	e9cd 1600 	strd	r1, r6, [sp]
 80033e0:	9402      	str	r4, [sp, #8]
 80033e2:	dc0d      	bgt.n	8003400 <xTimerGenericCommand+0x48>
 80033e4:	f7ff feae 	bl	8003144 <xTaskGetSchedulerState>
 80033e8:	2300      	movs	r3, #0
 80033ea:	2802      	cmp	r0, #2
 80033ec:	bf18      	it	ne
 80033ee:	461a      	movne	r2, r3
 80033f0:	4669      	mov	r1, sp
 80033f2:	bf08      	it	eq
 80033f4:	9a08      	ldreq	r2, [sp, #32]
 80033f6:	6828      	ldr	r0, [r5, #0]
 80033f8:	f7ff f886 	bl	8002508 <xQueueGenericSend>
 80033fc:	b004      	add	sp, #16
 80033fe:	bd70      	pop	{r4, r5, r6, pc}
 8003400:	2300      	movs	r3, #0
 8003402:	4669      	mov	r1, sp
 8003404:	f7ff f965 	bl	80026d2 <xQueueGenericSendFromISR>
 8003408:	e7f8      	b.n	80033fc <xTimerGenericCommand+0x44>
 800340a:	bf00      	nop
 800340c:	200016f0 	.word	0x200016f0

08003410 <prvSampleTimeNow>:
 8003410:	e92d 4ff7 	stmdb	sp!, {r0, r1, r2, r4, r5, r6, r7, r8, r9, sl, fp, lr}
 8003414:	4606      	mov	r6, r0
 8003416:	f7ff fc63 	bl	8002ce0 <xTaskGetTickCount>
 800341a:	f8df 8090 	ldr.w	r8, [pc, #144]	; 80034ac <prvSampleTimeNow+0x9c>
 800341e:	4605      	mov	r5, r0
 8003420:	f8d8 3000 	ldr.w	r3, [r8]
 8003424:	4283      	cmp	r3, r0
 8003426:	d93e      	bls.n	80034a6 <prvSampleTimeNow+0x96>
 8003428:	f04f 0900 	mov.w	r9, #0
 800342c:	4f20      	ldr	r7, [pc, #128]	; (80034b0 <prvSampleTimeNow+0xa0>)
 800342e:	683b      	ldr	r3, [r7, #0]
 8003430:	681a      	ldr	r2, [r3, #0]
 8003432:	b95a      	cbnz	r2, 800344c <prvSampleTimeNow+0x3c>
 8003434:	4a1f      	ldr	r2, [pc, #124]	; (80034b4 <prvSampleTimeNow+0xa4>)
 8003436:	6811      	ldr	r1, [r2, #0]
 8003438:	6013      	str	r3, [r2, #0]
 800343a:	2301      	movs	r3, #1
 800343c:	6039      	str	r1, [r7, #0]
 800343e:	4628      	mov	r0, r5
 8003440:	6033      	str	r3, [r6, #0]
 8003442:	f8c8 5000 	str.w	r5, [r8]
 8003446:	b003      	add	sp, #12
 8003448:	e8bd 8ff0 	ldmia.w	sp!, {r4, r5, r6, r7, r8, r9, sl, fp, pc}
 800344c:	68db      	ldr	r3, [r3, #12]
 800344e:	68dc      	ldr	r4, [r3, #12]
 8003450:	f8d3 a000 	ldr.w	sl, [r3]
 8003454:	f104 0b04 	add.w	fp, r4, #4
 8003458:	4658      	mov	r0, fp
 800345a:	f7fe fdcc 	bl	8001ff6 <uxListRemove>
 800345e:	6a63      	ldr	r3, [r4, #36]	; 0x24
 8003460:	4620      	mov	r0, r4
 8003462:	4798      	blx	r3
 8003464:	69e3      	ldr	r3, [r4, #28]
 8003466:	2b01      	cmp	r3, #1
 8003468:	d1e1      	bne.n	800342e <prvSampleTimeNow+0x1e>
 800346a:	69a3      	ldr	r3, [r4, #24]
 800346c:	4453      	add	r3, sl
 800346e:	459a      	cmp	sl, r3
 8003470:	d206      	bcs.n	8003480 <prvSampleTimeNow+0x70>
 8003472:	4659      	mov	r1, fp
 8003474:	6838      	ldr	r0, [r7, #0]
 8003476:	6063      	str	r3, [r4, #4]
 8003478:	6124      	str	r4, [r4, #16]
 800347a:	f7fe fda5 	bl	8001fc8 <vListInsert>
 800347e:	e7d6      	b.n	800342e <prvSampleTimeNow+0x1e>
 8003480:	2300      	movs	r3, #0
 8003482:	4652      	mov	r2, sl
 8003484:	4619      	mov	r1, r3
 8003486:	4620      	mov	r0, r4
 8003488:	f8cd 9000 	str.w	r9, [sp]
 800348c:	f7ff ff94 	bl	80033b8 <xTimerGenericCommand>
 8003490:	2800      	cmp	r0, #0
 8003492:	d1cc      	bne.n	800342e <prvSampleTimeNow+0x1e>
 8003494:	f04f 0350 	mov.w	r3, #80	; 0x50
 8003498:	f383 8811 	msr	BASEPRI, r3
 800349c:	f3bf 8f6f 	isb	sy
 80034a0:	f3bf 8f4f 	dsb	sy
 80034a4:	e7fe      	b.n	80034a4 <prvSampleTimeNow+0x94>
 80034a6:	2300      	movs	r3, #0
 80034a8:	e7c9      	b.n	800343e <prvSampleTimeNow+0x2e>
 80034aa:	bf00      	nop
 80034ac:	2000169c 	.word	0x2000169c
 80034b0:	200015cc 	.word	0x200015cc
 80034b4:	200015d0 	.word	0x200015d0

080034b8 <prvTimerTask>:
 80034b8:	e92d 43f0 	stmdb	sp!, {r4, r5, r6, r7, r8, r9, lr}
 80034bc:	4e69      	ldr	r6, [pc, #420]	; (8003664 <prvTimerTask+0x1ac>)
 80034be:	4f6a      	ldr	r7, [pc, #424]	; (8003668 <prvTimerTask+0x1b0>)
 80034c0:	b089      	sub	sp, #36	; 0x24
 80034c2:	6833      	ldr	r3, [r6, #0]
 80034c4:	681d      	ldr	r5, [r3, #0]
 80034c6:	2d00      	cmp	r5, #0
 80034c8:	d033      	beq.n	8003532 <prvTimerTask+0x7a>
 80034ca:	68db      	ldr	r3, [r3, #12]
 80034cc:	f8d3 8000 	ldr.w	r8, [r3]
 80034d0:	f7ff fbfe 	bl	8002cd0 <vTaskSuspendAll>
 80034d4:	a804      	add	r0, sp, #16
 80034d6:	f7ff ff9b 	bl	8003410 <prvSampleTimeNow>
 80034da:	9c04      	ldr	r4, [sp, #16]
 80034dc:	4681      	mov	r9, r0
 80034de:	2c00      	cmp	r4, #0
 80034e0:	d175      	bne.n	80035ce <prvTimerTask+0x116>
 80034e2:	2d00      	cmp	r5, #0
 80034e4:	d058      	beq.n	8003598 <prvTimerTask+0xe0>
 80034e6:	4540      	cmp	r0, r8
 80034e8:	d35c      	bcc.n	80035a4 <prvTimerTask+0xec>
 80034ea:	f7ff fc8f 	bl	8002e0c <xTaskResumeAll>
 80034ee:	6833      	ldr	r3, [r6, #0]
 80034f0:	68db      	ldr	r3, [r3, #12]
 80034f2:	68dd      	ldr	r5, [r3, #12]
 80034f4:	1d28      	adds	r0, r5, #4
 80034f6:	f7fe fd7e 	bl	8001ff6 <uxListRemove>
 80034fa:	69eb      	ldr	r3, [r5, #28]
 80034fc:	2b01      	cmp	r3, #1
 80034fe:	d11a      	bne.n	8003536 <prvTimerTask+0x7e>
 8003500:	69a9      	ldr	r1, [r5, #24]
 8003502:	4643      	mov	r3, r8
 8003504:	464a      	mov	r2, r9
 8003506:	4628      	mov	r0, r5
 8003508:	4441      	add	r1, r8
 800350a:	f7ff fea1 	bl	8003250 <prvInsertTimerInActiveList>
 800350e:	b190      	cbz	r0, 8003536 <prvTimerTask+0x7e>
 8003510:	4623      	mov	r3, r4
 8003512:	4642      	mov	r2, r8
 8003514:	4621      	mov	r1, r4
 8003516:	4628      	mov	r0, r5
 8003518:	9400      	str	r4, [sp, #0]
 800351a:	f7ff ff4d 	bl	80033b8 <xTimerGenericCommand>
 800351e:	b950      	cbnz	r0, 8003536 <prvTimerTask+0x7e>
 8003520:	f04f 0350 	mov.w	r3, #80	; 0x50
 8003524:	f383 8811 	msr	BASEPRI, r3
 8003528:	f3bf 8f6f 	isb	sy
 800352c:	f3bf 8f4f 	dsb	sy
 8003530:	e7fe      	b.n	8003530 <prvTimerTask+0x78>
 8003532:	46a8      	mov	r8, r5
 8003534:	e7cc      	b.n	80034d0 <prvTimerTask+0x18>
 8003536:	4628      	mov	r0, r5
 8003538:	6a6b      	ldr	r3, [r5, #36]	; 0x24
 800353a:	4798      	blx	r3
 800353c:	2500      	movs	r5, #0
 800353e:	2200      	movs	r2, #0
 8003540:	6838      	ldr	r0, [r7, #0]
 8003542:	a904      	add	r1, sp, #16
 8003544:	f7ff f926 	bl	8002794 <xQueueReceive>
 8003548:	2800      	cmp	r0, #0
 800354a:	d0ba      	beq.n	80034c2 <prvTimerTask+0xa>
 800354c:	9b04      	ldr	r3, [sp, #16]
 800354e:	9806      	ldr	r0, [sp, #24]
 8003550:	2b00      	cmp	r3, #0
 8003552:	db3f      	blt.n	80035d4 <prvTimerTask+0x11c>
 8003554:	9c06      	ldr	r4, [sp, #24]
 8003556:	6963      	ldr	r3, [r4, #20]
 8003558:	2b00      	cmp	r3, #0
 800355a:	d142      	bne.n	80035e2 <prvTimerTask+0x12a>
 800355c:	a803      	add	r0, sp, #12
 800355e:	f7ff ff57 	bl	8003410 <prvSampleTimeNow>
 8003562:	9b04      	ldr	r3, [sp, #16]
 8003564:	4602      	mov	r2, r0
 8003566:	2b09      	cmp	r3, #9
 8003568:	d8e9      	bhi.n	800353e <prvTimerTask+0x86>
 800356a:	a101      	add	r1, pc, #4	; (adr r1, 8003570 <prvTimerTask+0xb8>)
 800356c:	f851 f023 	ldr.w	pc, [r1, r3, lsl #2]
 8003570:	080035eb 	.word	0x080035eb
 8003574:	080035eb 	.word	0x080035eb
 8003578:	080035eb 	.word	0x080035eb
 800357c:	0800353f 	.word	0x0800353f
 8003580:	0800362f 	.word	0x0800362f
 8003584:	08003653 	.word	0x08003653
 8003588:	080035eb 	.word	0x080035eb
 800358c:	080035eb 	.word	0x080035eb
 8003590:	0800353f 	.word	0x0800353f
 8003594:	0800362f 	.word	0x0800362f
 8003598:	4b34      	ldr	r3, [pc, #208]	; (800366c <prvTimerTask+0x1b4>)
 800359a:	681b      	ldr	r3, [r3, #0]
 800359c:	681c      	ldr	r4, [r3, #0]
 800359e:	fab4 f484 	clz	r4, r4
 80035a2:	0964      	lsrs	r4, r4, #5
 80035a4:	4622      	mov	r2, r4
 80035a6:	6838      	ldr	r0, [r7, #0]
 80035a8:	eba8 0109 	sub.w	r1, r8, r9
 80035ac:	f7ff f9a4 	bl	80028f8 <vQueueWaitForMessageRestricted>
 80035b0:	f7ff fc2c 	bl	8002e0c <xTaskResumeAll>
 80035b4:	2800      	cmp	r0, #0
 80035b6:	d1c1      	bne.n	800353c <prvTimerTask+0x84>
 80035b8:	f04f 23e0 	mov.w	r3, #3758153728	; 0xe000e000
 80035bc:	f04f 5280 	mov.w	r2, #268435456	; 0x10000000
 80035c0:	f8c3 2d04 	str.w	r2, [r3, #3332]	; 0xd04
 80035c4:	f3bf 8f4f 	dsb	sy
 80035c8:	f3bf 8f6f 	isb	sy
 80035cc:	e7b6      	b.n	800353c <prvTimerTask+0x84>
 80035ce:	f7ff fc1d 	bl	8002e0c <xTaskResumeAll>
 80035d2:	e7b3      	b.n	800353c <prvTimerTask+0x84>
 80035d4:	9b05      	ldr	r3, [sp, #20]
 80035d6:	9907      	ldr	r1, [sp, #28]
 80035d8:	4798      	blx	r3
 80035da:	9b04      	ldr	r3, [sp, #16]
 80035dc:	2b00      	cmp	r3, #0
 80035de:	dbae      	blt.n	800353e <prvTimerTask+0x86>
 80035e0:	e7b8      	b.n	8003554 <prvTimerTask+0x9c>
 80035e2:	1d20      	adds	r0, r4, #4
 80035e4:	f7fe fd07 	bl	8001ff6 <uxListRemove>
 80035e8:	e7b8      	b.n	800355c <prvTimerTask+0xa4>
 80035ea:	69a1      	ldr	r1, [r4, #24]
 80035ec:	9b05      	ldr	r3, [sp, #20]
 80035ee:	4620      	mov	r0, r4
 80035f0:	4419      	add	r1, r3
 80035f2:	f7ff fe2d 	bl	8003250 <prvInsertTimerInActiveList>
 80035f6:	2800      	cmp	r0, #0
 80035f8:	d0a1      	beq.n	800353e <prvTimerTask+0x86>
 80035fa:	6a63      	ldr	r3, [r4, #36]	; 0x24
 80035fc:	4620      	mov	r0, r4
 80035fe:	4798      	blx	r3
 8003600:	69e3      	ldr	r3, [r4, #28]
 8003602:	2b01      	cmp	r3, #1
 8003604:	d19b      	bne.n	800353e <prvTimerTask+0x86>
 8003606:	2300      	movs	r3, #0
 8003608:	69a2      	ldr	r2, [r4, #24]
 800360a:	9905      	ldr	r1, [sp, #20]
 800360c:	4620      	mov	r0, r4
 800360e:	440a      	add	r2, r1
 8003610:	9500      	str	r5, [sp, #0]
 8003612:	4619      	mov	r1, r3
 8003614:	f7ff fed0 	bl	80033b8 <xTimerGenericCommand>
 8003618:	2800      	cmp	r0, #0
 800361a:	d190      	bne.n	800353e <prvTimerTask+0x86>
 800361c:	f04f 0350 	mov.w	r3, #80	; 0x50
 8003620:	f383 8811 	msr	BASEPRI, r3
 8003624:	f3bf 8f6f 	isb	sy
 8003628:	f3bf 8f4f 	dsb	sy
 800362c:	e7fe      	b.n	800362c <prvTimerTask+0x174>
 800362e:	9905      	ldr	r1, [sp, #20]
 8003630:	61a1      	str	r1, [r4, #24]
 8003632:	b941      	cbnz	r1, 8003646 <prvTimerTask+0x18e>
 8003634:	f04f 0350 	mov.w	r3, #80	; 0x50
 8003638:	f383 8811 	msr	BASEPRI, r3
 800363c:	f3bf 8f6f 	isb	sy
 8003640:	f3bf 8f4f 	dsb	sy
 8003644:	e7fe      	b.n	8003644 <prvTimerTask+0x18c>
 8003646:	4603      	mov	r3, r0
 8003648:	4401      	add	r1, r0
 800364a:	4620      	mov	r0, r4
 800364c:	f7ff fe00 	bl	8003250 <prvInsertTimerInActiveList>
 8003650:	e775      	b.n	800353e <prvTimerTask+0x86>
 8003652:	f894 302c 	ldrb.w	r3, [r4, #44]	; 0x2c
 8003656:	2b00      	cmp	r3, #0
 8003658:	f47f af71 	bne.w	800353e <prvTimerTask+0x86>
 800365c:	4620      	mov	r0, r4
 800365e:	f7fe fc61 	bl	8001f24 <vPortFree>
 8003662:	e76c      	b.n	800353e <prvTimerTask+0x86>
 8003664:	200015cc 	.word	0x200015cc
 8003668:	200016f0 	.word	0x200016f0
 800366c:	200015d0 	.word	0x200015d0

08003670 <pvTimerGetTimerID>:
 8003670:	b510      	push	{r4, lr}
 8003672:	4604      	mov	r4, r0
 8003674:	b940      	cbnz	r0, 8003688 <pvTimerGetTimerID+0x18>
 8003676:	f04f 0350 	mov.w	r3, #80	; 0x50
 800367a:	f383 8811 	msr	BASEPRI, r3
 800367e:	f3bf 8f6f 	isb	sy
 8003682:	f3bf 8f4f 	dsb	sy
 8003686:	e7fe      	b.n	8003686 <pvTimerGetTimerID+0x16>
 8003688:	f7fe fd1c 	bl	80020c4 <vPortEnterCritical>
 800368c:	6a24      	ldr	r4, [r4, #32]
 800368e:	f7fe fd39 	bl	8002104 <vPortExitCritical>
 8003692:	4620      	mov	r0, r4
 8003694:	bd10      	pop	{r4, pc}
	...

08003698 <__libc_init_array>:
 8003698:	b570      	push	{r4, r5, r6, lr}
 800369a:	2600      	movs	r6, #0
 800369c:	4d0c      	ldr	r5, [pc, #48]	; (80036d0 <__libc_init_array+0x38>)
 800369e:	4c0d      	ldr	r4, [pc, #52]	; (80036d4 <__libc_init_array+0x3c>)
 80036a0:	1b64      	subs	r4, r4, r5
 80036a2:	10a4      	asrs	r4, r4, #2
 80036a4:	42a6      	cmp	r6, r4
 80036a6:	d109      	bne.n	80036bc <__libc_init_array+0x24>
 80036a8:	f000 f830 	bl	800370c <_init>
 80036ac:	2600      	movs	r6, #0
 80036ae:	4d0a      	ldr	r5, [pc, #40]	; (80036d8 <__libc_init_array+0x40>)
 80036b0:	4c0a      	ldr	r4, [pc, #40]	; (80036dc <__libc_init_array+0x44>)
 80036b2:	1b64      	subs	r4, r4, r5
 80036b4:	10a4      	asrs	r4, r4, #2
 80036b6:	42a6      	cmp	r6, r4
 80036b8:	d105      	bne.n	80036c6 <__libc_init_array+0x2e>
 80036ba:	bd70      	pop	{r4, r5, r6, pc}
 80036bc:	f855 3b04 	ldr.w	r3, [r5], #4
 80036c0:	4798      	blx	r3
 80036c2:	3601      	adds	r6, #1
 80036c4:	e7ee      	b.n	80036a4 <__libc_init_array+0xc>
 80036c6:	f855 3b04 	ldr.w	r3, [r5], #4
 80036ca:	4798      	blx	r3
 80036cc:	3601      	adds	r6, #1
 80036ce:	e7f2      	b.n	80036b6 <__libc_init_array+0x1e>
 80036d0:	080037d8 	.word	0x080037d8
 80036d4:	080037d8 	.word	0x080037d8
 80036d8:	080037d8 	.word	0x080037d8
 80036dc:	080037dc 	.word	0x080037dc

080036e0 <memcpy>:
 80036e0:	440a      	add	r2, r1
 80036e2:	4291      	cmp	r1, r2
 80036e4:	f100 33ff 	add.w	r3, r0, #4294967295
 80036e8:	d100      	bne.n	80036ec <memcpy+0xc>
 80036ea:	4770      	bx	lr
 80036ec:	b510      	push	{r4, lr}
 80036ee:	f811 4b01 	ldrb.w	r4, [r1], #1
 80036f2:	4291      	cmp	r1, r2
 80036f4:	f803 4f01 	strb.w	r4, [r3, #1]!
 80036f8:	d1f9      	bne.n	80036ee <memcpy+0xe>
 80036fa:	bd10      	pop	{r4, pc}

080036fc <memset>:
 80036fc:	4603      	mov	r3, r0
 80036fe:	4402      	add	r2, r0
 8003700:	4293      	cmp	r3, r2
 8003702:	d100      	bne.n	8003706 <memset+0xa>
 8003704:	4770      	bx	lr
 8003706:	f803 1b01 	strb.w	r1, [r3], #1
 800370a:	e7f9      	b.n	8003700 <memset+0x4>

0800370c <_init>:
 800370c:	b5f8      	push	{r3, r4, r5, r6, r7, lr}
 800370e:	bf00      	nop
 8003710:	bcf8      	pop	{r3, r4, r5, r6, r7}
 8003712:	bc08      	pop	{r3}
 8003714:	469e      	mov	lr, r3
 8003716:	4770      	bx	lr

08003718 <_fini>:
 8003718:	b5f8      	push	{r3, r4, r5, r6, r7, lr}
 800371a:	bf00      	nop
 800371c:	bcf8      	pop	{r3, r4, r5, r6, r7}
 800371e:	bc08      	pop	{r3}
 8003720:	469e      	mov	lr, r3
 8003722:	4770      	bx	lr
